
dsp_app_new.out:     file format elf64-littleriscv


Disassembly of section .text:

00000000000101e8 <oom>:
   101e8:	1141                	c.addi	sp,-16
   101ea:	4509                	c.li	a0,2
   101ec:	0004e597          	auipc	a1,0x4e
   101f0:	49c58593          	addi	a1,a1,1180 # 5e688 <__PRETTY_FUNCTION__.9985+0x118>
   101f4:	00113423          	sd	ra,8(sp)
   101f8:	011300ef          	jal	ra,40a08 <_dl_dprintf>
   101fc:	07f00513          	li	a0,127
   10200:	5ac110ef          	jal	ra,217ac <_exit>

0000000000010204 <fini>:
   10204:	6201b503          	ld	a0,1568(gp) # 6d730 <last_result+0x18>
   10208:	4913306f          	j	43e98 <check_free.isra.0>
   1020c:	0000                	unimp
	...

0000000000010210 <main>:
   10210:	4c4002ef          	jal	t0,106d4 <__riscv_save_4>
   10214:	00100793          	li	a5,1
   10218:	08a7d863          	bge	a5,a0,102a8 <main+0x98>
   1021c:	0085b483          	ld	s1,8(a1)
   10220:	00050993          	mv	s3,a0
   10224:	00058913          	mv	s2,a1
   10228:	00048513          	mv	a0,s1
   1022c:	0003c597          	auipc	a1,0x3c
   10230:	3e458593          	addi	a1,a1,996 # 4c610 <buffer_free+0x2b8>
   10234:	1c4100ef          	jal	ra,203f8 <strstr>
   10238:	02050063          	beqz	a0,10258 <main+0x48>
   1023c:	00093603          	ld	a2,0(s2)
   10240:	0003c517          	auipc	a0,0x3c
   10244:	3d850513          	addi	a0,a0,984 # 4c618 <buffer_free+0x2c0>
   10248:	00060593          	mv	a1,a2
   1024c:	708050ef          	jal	ra,15954 <_IO_printf>
   10250:	00000513          	li	a0,0
   10254:	479040ef          	jal	ra,14ecc <exit>
   10258:	00200793          	li	a5,2
   1025c:	1f000437          	lui	s0,0x1f000
   10260:	00f98863          	beq	s3,a5,10270 <main+0x60>
   10264:	01093503          	ld	a0,16(s2)
   10268:	358040ef          	jal	ra,145c0 <atoll>
   1026c:	00050413          	mv	s0,a0
   10270:	00048593          	mv	a1,s1
   10274:	00040613          	mv	a2,s0
   10278:	0003c517          	auipc	a0,0x3c
   1027c:	3e850513          	addi	a0,a0,1000 # 4c660 <buffer_free+0x308>
   10280:	6d4050ef          	jal	ra,15954 <_IO_printf>
   10284:	00048593          	mv	a1,s1
   10288:	00040513          	mv	a0,s0
   1028c:	2c0000ef          	jal	ra,1054c <kendryte_dsp_load_bin>
   10290:	02050463          	beqz	a0,102b8 <main+0xa8>
   10294:	0003c517          	auipc	a0,0x3c
   10298:	3f450513          	addi	a0,a0,1012 # 4c688 <buffer_free+0x330>
   1029c:	6b8050ef          	jal	ra,15954 <_IO_printf>
   102a0:	fff00513          	li	a0,-1
   102a4:	46e0006f          	j	10712 <__riscv_restore_4>
   102a8:	0003c497          	auipc	s1,0x3c
   102ac:	36048493          	addi	s1,s1,864 # 4c608 <buffer_free+0x2b0>
   102b0:	1f000437          	lui	s0,0x1f000
   102b4:	fbdff06f          	j	10270 <main+0x60>
   102b8:	0003c517          	auipc	a0,0x3c
   102bc:	3f050513          	addi	a0,a0,1008 # 4c6a8 <buffer_free+0x350>
   102c0:	694050ef          	jal	ra,15954 <_IO_printf>
   102c4:	00040513          	mv	a0,s0
   102c8:	368000ef          	jal	ra,10630 <kendryte_dsp_boot>
   102cc:	fc050ce3          	beqz	a0,102a4 <main+0x94>
   102d0:	0003c517          	auipc	a0,0x3c
   102d4:	3f050513          	addi	a0,a0,1008 # 4c6c0 <buffer_free+0x368>
   102d8:	fc5ff06f          	j	1029c <main+0x8c>

00000000000102dc <_start>:
   102dc:	02c000ef          	jal	ra,10308 <_start+0x2c>
   102e0:	87aa                	c.mv	a5,a0
   102e2:	00000517          	auipc	a0,0x0
   102e6:	f2e50513          	addi	a0,a0,-210 # 10210 <main>
   102ea:	6582                	c.ldsp	a1,0(sp)
   102ec:	0030                	c.addi4spn	a2,sp,8
   102ee:	ff017113          	andi	sp,sp,-16
   102f2:	00001697          	auipc	a3,0x1
   102f6:	8a268693          	addi	a3,a3,-1886 # 10b94 <__libc_csu_init>
   102fa:	00001717          	auipc	a4,0x1
   102fe:	92a70713          	addi	a4,a4,-1750 # 10c24 <__libc_csu_fini>
   10302:	880a                	c.mv	a6,sp
   10304:	4240006f          	j	10728 <__libc_start_main>
   10308:	0005d197          	auipc	gp,0x5d
   1030c:	e0818193          	addi	gp,gp,-504 # 6d110 <__global_pointer$>
   10310:	8082                	c.jr	ra
	...

0000000000010314 <deregister_tm_clones>:
   10314:	0005c517          	auipc	a0,0x5c
   10318:	5c450513          	addi	a0,a0,1476 # 6c8d8 <__TMC_END__>
   1031c:	0005c797          	auipc	a5,0x5c
   10320:	5bc78793          	addi	a5,a5,1468 # 6c8d8 <__TMC_END__>
   10324:	00a78a63          	beq	a5,a0,10338 <deregister_tm_clones+0x24>
   10328:	ffff0317          	auipc	t1,0xffff0
   1032c:	cd830313          	addi	t1,t1,-808 # 0 <_nl_current_LC_CTYPE>
   10330:	00030463          	beqz	t1,10338 <deregister_tm_clones+0x24>
   10334:	00030067          	jr	t1
   10338:	00008067          	ret

000000000001033c <register_tm_clones>:
   1033c:	0005c517          	auipc	a0,0x5c
   10340:	59c50513          	addi	a0,a0,1436 # 6c8d8 <__TMC_END__>
   10344:	0005c597          	auipc	a1,0x5c
   10348:	59458593          	addi	a1,a1,1428 # 6c8d8 <__TMC_END__>
   1034c:	8d89                	c.sub	a1,a0
   1034e:	858d                	c.srai	a1,0x3
   10350:	03f5d793          	srli	a5,a1,0x3f
   10354:	95be                	c.add	a1,a5
   10356:	8585                	c.srai	a1,0x1
   10358:	c981                	c.beqz	a1,10368 <register_tm_clones+0x2c>
   1035a:	ffff0317          	auipc	t1,0xffff0
   1035e:	ca630313          	addi	t1,t1,-858 # 0 <_nl_current_LC_CTYPE>
   10362:	00030363          	beqz	t1,10368 <register_tm_clones+0x2c>
   10366:	8302                	c.jr	t1
   10368:	00008067          	ret

000000000001036c <__do_global_dtors_aux>:
   1036c:	c501c783          	lbu	a5,-944(gp) # 6cd60 <completed.6249>
   10370:	eb85                	c.bnez	a5,103a0 <__do_global_dtors_aux+0x34>
   10372:	1141                	c.addi	sp,-16
   10374:	00113423          	sd	ra,8(sp)
   10378:	f9dff0ef          	jal	ra,10314 <deregister_tm_clones>
   1037c:	0003c797          	auipc	a5,0x3c
   10380:	9b478793          	addi	a5,a5,-1612 # 4bd30 <__deregister_frame_info>
   10384:	00078863          	beqz	a5,10394 <__do_global_dtors_aux+0x28>
   10388:	00056517          	auipc	a0,0x56
   1038c:	24850513          	addi	a0,a0,584 # 665d0 <__EH_FRAME_BEGIN__>
   10390:	1a13b0ef          	jal	ra,4bd30 <__deregister_frame_info>
   10394:	60a2                	c.ldsp	ra,8(sp)
   10396:	4785                	c.li	a5,1
   10398:	c4f18823          	sb	a5,-944(gp) # 6cd60 <completed.6249>
   1039c:	0141                	c.addi	sp,16
   1039e:	8082                	c.jr	ra
   103a0:	00008067          	ret

00000000000103a4 <frame_dummy>:
   103a4:	0003b797          	auipc	a5,0x3b
   103a8:	77c78793          	addi	a5,a5,1916 # 4bb20 <__register_frame_info>
   103ac:	c385                	c.beqz	a5,103cc <frame_dummy+0x28>
   103ae:	1141                	c.addi	sp,-16
   103b0:	c5818593          	addi	a1,gp,-936 # 6cd68 <object.6254>
   103b4:	00056517          	auipc	a0,0x56
   103b8:	21c50513          	addi	a0,a0,540 # 665d0 <__EH_FRAME_BEGIN__>
   103bc:	00113423          	sd	ra,8(sp)
   103c0:	7603b0ef          	jal	ra,4bb20 <__register_frame_info>
   103c4:	60a2                	c.ldsp	ra,8(sp)
   103c6:	0141                	c.addi	sp,16
   103c8:	f75ff06f          	j	1033c <register_tm_clones>
   103cc:	f71ff06f          	j	1033c <register_tm_clones>

00000000000103d0 <kendryte_cmem_init>:
   103d0:	310002ef          	jal	t0,106e0 <__riscv_save_2>
   103d4:	ff010113          	addi	sp,sp,-16
   103d8:	00051c63          	bnez	a0,103f0 <kendryte_cmem_init+0x20>
   103dc:	0003c517          	auipc	a0,0x3c
   103e0:	06450513          	addi	a0,a0,100 # 4c440 <buffer_free+0xe8>
   103e4:	570050ef          	jal	ra,15954 <_IO_printf>
   103e8:	fff00593          	li	a1,-1
   103ec:	0400006f          	j	1042c <kendryte_cmem_init+0x5c>
   103f0:	001015b7          	lui	a1,0x101
   103f4:	00050413          	mv	s0,a0
   103f8:	00258593          	addi	a1,a1,2 # 101002 <_end+0x9302a>
   103fc:	0003c517          	auipc	a0,0x3c
   10400:	06450513          	addi	a0,a0,100 # 4c460 <buffer_free+0x108>
   10404:	70c110ef          	jal	ra,21b10 <__libc_open>
   10408:	fff00493          	li	s1,-1
   1040c:	00a42c23          	sw	a0,24(s0) # 1f000018 <_end+0x1ef92040>
   10410:	00050593          	mv	a1,a0
   10414:	02951263          	bne	a0,s1,10438 <kendryte_cmem_init+0x68>
   10418:	00a13423          	sd	a0,8(sp)
   1041c:	0003c517          	auipc	a0,0x3c
   10420:	05450513          	addi	a0,a0,84 # 4c470 <buffer_free+0x118>
   10424:	530050ef          	jal	ra,15954 <_IO_printf>
   10428:	00813583          	ld	a1,8(sp)
   1042c:	00058513          	mv	a0,a1
   10430:	01010113          	addi	sp,sp,16
   10434:	2e40006f          	j	10718 <__riscv_restore_2>
   10438:	0003c517          	auipc	a0,0x3c
   1043c:	05850513          	addi	a0,a0,88 # 4c490 <buffer_free+0x138>
   10440:	514050ef          	jal	ra,15954 <_IO_printf>
   10444:	00043703          	ld	a4,0(s0)
   10448:	00100793          	li	a5,1
   1044c:	02079793          	slli	a5,a5,0x20
   10450:	00f767b3          	or	a5,a4,a5
   10454:	00843583          	ld	a1,8(s0)
   10458:	01842703          	lw	a4,24(s0)
   1045c:	00100693          	li	a3,1
   10460:	00300613          	li	a2,3
   10464:	00000513          	li	a0,0
   10468:	7d1110ef          	jal	ra,22438 <__mmap64>
   1046c:	00a43823          	sd	a0,16(s0)
   10470:	00050693          	mv	a3,a0
   10474:	00951c63          	bne	a0,s1,1048c <kendryte_cmem_init+0xbc>
   10478:	01842503          	lw	a0,24(s0)
   1047c:	06d110ef          	jal	ra,21ce8 <__close>
   10480:	0003c517          	auipc	a0,0x3c
   10484:	03850513          	addi	a0,a0,56 # 4c4b8 <buffer_free+0x160>
   10488:	f5dff06f          	j	103e4 <kendryte_cmem_init+0x14>
   1048c:	00043583          	ld	a1,0(s0)
   10490:	00843603          	ld	a2,8(s0)
   10494:	0003c517          	auipc	a0,0x3c
   10498:	04450513          	addi	a0,a0,68 # 4c4d8 <buffer_free+0x180>
   1049c:	4b8050ef          	jal	ra,15954 <_IO_printf>
   104a0:	00000593          	li	a1,0
   104a4:	f89ff06f          	j	1042c <kendryte_cmem_init+0x5c>

00000000000104a8 <kendryte_cmem_deinit>:
   104a8:	238002ef          	jal	t0,106e0 <__riscv_save_2>
   104ac:	08050663          	beqz	a0,10538 <kendryte_cmem_deinit+0x90>
   104b0:	00050413          	mv	s0,a0
   104b4:	01053503          	ld	a0,16(a0)
   104b8:	06050063          	beqz	a0,10518 <kendryte_cmem_deinit+0x70>
   104bc:	00843583          	ld	a1,8(s0)
   104c0:	7a9110ef          	jal	ra,22468 <__munmap>
   104c4:	fff00793          	li	a5,-1
   104c8:	00050493          	mv	s1,a0
   104cc:	00f51c63          	bne	a0,a5,104e4 <kendryte_cmem_deinit+0x3c>
   104d0:	0003c517          	auipc	a0,0x3c
   104d4:	ec050513          	addi	a0,a0,-320 # 4c390 <buffer_free+0x38>
   104d8:	47c050ef          	jal	ra,15954 <_IO_printf>
   104dc:	00048513          	mv	a0,s1
   104e0:	2380006f          	j	10718 <__riscv_restore_2>
   104e4:	00843603          	ld	a2,8(s0)
   104e8:	00043583          	ld	a1,0(s0)
   104ec:	0003c517          	auipc	a0,0x3c
   104f0:	ecc50513          	addi	a0,a0,-308 # 4c3b8 <buffer_free+0x60>
   104f4:	460050ef          	jal	ra,15954 <_IO_printf>
   104f8:	00043823          	sd	zero,16(s0)
   104fc:	01842503          	lw	a0,24(s0)
   10500:	02054463          	bltz	a0,10528 <kendryte_cmem_deinit+0x80>
   10504:	7e4110ef          	jal	ra,21ce8 <__close>
   10508:	fff00793          	li	a5,-1
   1050c:	00f42c23          	sw	a5,24(s0)
   10510:	00000493          	li	s1,0
   10514:	fc9ff06f          	j	104dc <kendryte_cmem_deinit+0x34>
   10518:	0003c517          	auipc	a0,0x3c
   1051c:	ec850513          	addi	a0,a0,-312 # 4c3e0 <buffer_free+0x88>
   10520:	434050ef          	jal	ra,15954 <_IO_printf>
   10524:	fd9ff06f          	j	104fc <kendryte_cmem_deinit+0x54>
   10528:	0003c517          	auipc	a0,0x3c
   1052c:	ee050513          	addi	a0,a0,-288 # 4c408 <buffer_free+0xb0>
   10530:	424050ef          	jal	ra,15954 <_IO_printf>
   10534:	fddff06f          	j	10510 <kendryte_cmem_deinit+0x68>
   10538:	0003c517          	auipc	a0,0x3c
   1053c:	ee850513          	addi	a0,a0,-280 # 4c420 <buffer_free+0xc8>
   10540:	414050ef          	jal	ra,15954 <_IO_printf>
   10544:	fff00493          	li	s1,-1
   10548:	f95ff06f          	j	104dc <kendryte_cmem_deinit+0x34>

000000000001054c <kendryte_dsp_load_bin>:
   1054c:	188002ef          	jal	t0,106d4 <__riscv_save_4>
   10550:	f8010113          	addi	sp,sp,-128
   10554:	02059063          	bnez	a1,10574 <kendryte_dsp_load_bin+0x28>
   10558:	0003c517          	auipc	a0,0x3c
   1055c:	ff050513          	addi	a0,a0,-16 # 4c548 <buffer_free+0x1f0>
   10560:	fff00413          	li	s0,-1
   10564:	3f0050ef          	jal	ra,15954 <_IO_printf>
   10568:	00040513          	mv	a0,s0
   1056c:	08010113          	addi	sp,sp,128
   10570:	1a20006f          	j	10712 <__riscv_restore_4>
   10574:	00058493          	mv	s1,a1
   10578:	00050413          	mv	s0,a0
   1057c:	00010593          	mv	a1,sp
   10580:	00048513          	mv	a0,s1
   10584:	518110ef          	jal	ra,21a9c <__stat>
   10588:	00054663          	bltz	a0,10594 <kendryte_dsp_load_bin+0x48>
   1058c:	03013903          	ld	s2,48(sp)
   10590:	01204863          	bgtz	s2,105a0 <kendryte_dsp_load_bin+0x54>
   10594:	0003c517          	auipc	a0,0x3c
   10598:	fd450513          	addi	a0,a0,-44 # 4c568 <buffer_free+0x210>
   1059c:	fc5ff06f          	j	10560 <kendryte_dsp_load_bin+0x14>
   105a0:	c8818513          	addi	a0,gp,-888 # 6cd98 <dsp_cmem>
   105a4:	c881b423          	sd	s0,-888(gp) # 6cd98 <dsp_cmem>
   105a8:	c921b823          	sd	s2,-880(gp) # 6cda0 <dsp_cmem+0x8>
   105ac:	e25ff0ef          	jal	ra,103d0 <kendryte_cmem_init>
   105b0:	00055863          	bgez	a0,105c0 <kendryte_dsp_load_bin+0x74>
   105b4:	0003c517          	auipc	a0,0x3c
   105b8:	fec50513          	addi	a0,a0,-20 # 4c5a0 <buffer_free+0x248>
   105bc:	fa5ff06f          	j	10560 <kendryte_dsp_load_bin+0x14>
   105c0:	00200593          	li	a1,2
   105c4:	00048513          	mv	a0,s1
   105c8:	548110ef          	jal	ra,21b10 <__libc_open>
   105cc:	00050993          	mv	s3,a0
   105d0:	02055263          	bgez	a0,105f4 <kendryte_dsp_load_bin+0xa8>
   105d4:	00048593          	mv	a1,s1
   105d8:	0003c517          	auipc	a0,0x3c
   105dc:	fe850513          	addi	a0,a0,-24 # 4c5c0 <buffer_free+0x268>
   105e0:	fff00413          	li	s0,-1
   105e4:	370050ef          	jal	ra,15954 <_IO_printf>
   105e8:	c8818513          	addi	a0,gp,-888 # 6cd98 <dsp_cmem>
   105ec:	ebdff0ef          	jal	ra,104a8 <kendryte_cmem_deinit>
   105f0:	f79ff06f          	j	10568 <kendryte_dsp_load_bin+0x1c>
   105f4:	00090613          	mv	a2,s2
   105f8:	c981b583          	ld	a1,-872(gp) # 6cda8 <dsp_cmem+0x10>
   105fc:	5c8110ef          	jal	ra,21bc4 <__libc_read>
   10600:	0005069b          	sext.w	a3,a0
   10604:	00000413          	li	s0,0
   10608:	01268e63          	beq	a3,s2,10624 <kendryte_dsp_load_bin+0xd8>
   1060c:	00090613          	mv	a2,s2
   10610:	00048593          	mv	a1,s1
   10614:	0003c517          	auipc	a0,0x3c
   10618:	fc450513          	addi	a0,a0,-60 # 4c5d8 <buffer_free+0x280>
   1061c:	fff00413          	li	s0,-1
   10620:	334050ef          	jal	ra,15954 <_IO_printf>
   10624:	00098513          	mv	a0,s3
   10628:	6c0110ef          	jal	ra,21ce8 <__close>
   1062c:	fbdff06f          	j	105e8 <kendryte_dsp_load_bin+0x9c>

0000000000010630 <kendryte_dsp_boot>:
   10630:	0b0002ef          	jal	t0,106e0 <__riscv_save_2>
   10634:	ff010113          	addi	sp,sp,-16
   10638:	00a13423          	sd	a0,8(sp)
   1063c:	00200593          	li	a1,2
   10640:	0003c517          	auipc	a0,0x3c
   10644:	ed850513          	addi	a0,a0,-296 # 4c518 <buffer_free+0x1c0>
   10648:	4c8110ef          	jal	ra,21b10 <__libc_open>
   1064c:	00813603          	ld	a2,8(sp)
   10650:	02055463          	bgez	a0,10678 <kendryte_dsp_boot+0x48>
   10654:	0003c597          	auipc	a1,0x3c
   10658:	ec458593          	addi	a1,a1,-316 # 4c518 <buffer_free+0x1c0>
   1065c:	0003c517          	auipc	a0,0x3c
   10660:	f6450513          	addi	a0,a0,-156 # 4c5c0 <buffer_free+0x268>
   10664:	fff00413          	li	s0,-1
   10668:	2ec050ef          	jal	ra,15954 <_IO_printf>
   1066c:	00040513          	mv	a0,s0
   10670:	01010113          	addi	sp,sp,16
   10674:	0a40006f          	j	10718 <__riscv_restore_2>
   10678:	0003c597          	auipc	a1,0x3c
   1067c:	e985b583          	ld	a1,-360(a1) # 4c510 <buffer_free+0x1b8>
   10680:	00050493          	mv	s1,a0
   10684:	00000413          	li	s0,0
   10688:	545110ef          	jal	ra,223cc <__ioctl>
   1068c:	00055a63          	bgez	a0,106a0 <kendryte_dsp_boot+0x70>
   10690:	0003c517          	auipc	a0,0x3c
   10694:	e9850513          	addi	a0,a0,-360 # 4c528 <buffer_free+0x1d0>
   10698:	fff00413          	li	s0,-1
   1069c:	2b8050ef          	jal	ra,15954 <_IO_printf>
   106a0:	00048513          	mv	a0,s1
   106a4:	644110ef          	jal	ra,21ce8 <__close>
   106a8:	fc5ff06f          	j	1066c <kendryte_dsp_boot+0x3c>

00000000000106ac <__riscv_save_12>:
   106ac:	7159                	c.addi16sp	sp,-112
   106ae:	4301                	c.li	t1,0
   106b0:	e46e                	c.sdsp	s11,8(sp)
   106b2:	a019                	c.j	106b8 <__riscv_save_10+0x4>

00000000000106b4 <__riscv_save_10>:
   106b4:	7159                	c.addi16sp	sp,-112
   106b6:	5341                	c.li	t1,-16
   106b8:	e86a                	c.sdsp	s10,16(sp)
   106ba:	ec66                	c.sdsp	s9,24(sp)
   106bc:	a019                	c.j	106c2 <__riscv_save_8+0x4>

00000000000106be <__riscv_save_8>:
   106be:	7159                	c.addi16sp	sp,-112
   106c0:	5301                	c.li	t1,-32
   106c2:	f062                	c.sdsp	s8,32(sp)
   106c4:	f45e                	c.sdsp	s7,40(sp)
   106c6:	a021                	c.j	106ce <__riscv_save_6+0x6>

00000000000106c8 <__riscv_save_6>:
   106c8:	7159                	c.addi16sp	sp,-112
   106ca:	fd000313          	li	t1,-48
   106ce:	f85a                	c.sdsp	s6,48(sp)
   106d0:	fc56                	c.sdsp	s5,56(sp)
   106d2:	a021                	c.j	106da <__riscv_save_4+0x6>

00000000000106d4 <__riscv_save_4>:
   106d4:	7159                	c.addi16sp	sp,-112
   106d6:	fc000313          	li	t1,-64
   106da:	e0d2                	c.sdsp	s4,64(sp)
   106dc:	e4ce                	c.sdsp	s3,72(sp)
   106de:	a021                	c.j	106e6 <__riscv_save_2+0x6>

00000000000106e0 <__riscv_save_2>:
   106e0:	7159                	c.addi16sp	sp,-112
   106e2:	fb000313          	li	t1,-80
   106e6:	e8ca                	c.sdsp	s2,80(sp)
   106e8:	eca6                	c.sdsp	s1,88(sp)
   106ea:	f0a2                	c.sdsp	s0,96(sp)
   106ec:	f486                	c.sdsp	ra,104(sp)
   106ee:	40610133          	sub	sp,sp,t1
   106f2:	8282                	c.jr	t0

00000000000106f4 <__riscv_save_0>:
   106f4:	1141                	c.addi	sp,-16
   106f6:	e022                	c.sdsp	s0,0(sp)
   106f8:	e406                	c.sdsp	ra,8(sp)
   106fa:	8282                	c.jr	t0

00000000000106fc <__riscv_restore_12>:
   106fc:	6da2                	c.ldsp	s11,8(sp)
   106fe:	0141                	c.addi	sp,16

0000000000010700 <__riscv_restore_10>:
   10700:	6d02                	c.ldsp	s10,0(sp)
   10702:	6ca2                	c.ldsp	s9,8(sp)
   10704:	0141                	c.addi	sp,16

0000000000010706 <__riscv_restore_8>:
   10706:	6c02                	c.ldsp	s8,0(sp)
   10708:	6ba2                	c.ldsp	s7,8(sp)
   1070a:	0141                	c.addi	sp,16

000000000001070c <__riscv_restore_6>:
   1070c:	6b02                	c.ldsp	s6,0(sp)
   1070e:	6aa2                	c.ldsp	s5,8(sp)
   10710:	0141                	c.addi	sp,16

0000000000010712 <__riscv_restore_4>:
   10712:	6a02                	c.ldsp	s4,0(sp)
   10714:	69a2                	c.ldsp	s3,8(sp)
   10716:	0141                	c.addi	sp,16

0000000000010718 <__riscv_restore_2>:
   10718:	6902                	c.ldsp	s2,0(sp)
   1071a:	64a2                	c.ldsp	s1,8(sp)
   1071c:	0141                	c.addi	sp,16

000000000001071e <__riscv_restore_0>:
   1071e:	6402                	c.ldsp	s0,0(sp)
   10720:	60a2                	c.ldsp	ra,8(sp)
   10722:	0141                	c.addi	sp,16
   10724:	8082                	c.jr	ra
	...

0000000000010728 <__libc_start_main>:
   10728:	7129                	c.addi16sp	sp,-320
   1072a:	fa22                	c.sdsp	s0,304(sp)
   1072c:	f626                	c.sdsp	s1,296(sp)
   1072e:	f24a                	c.sdsp	s2,288(sp)
   10730:	fe06                	c.sdsp	ra,312(sp)
   10732:	ffff0897          	auipc	a7,0xffff0
   10736:	8ce88893          	addi	a7,a7,-1842 # 0 <_nl_current_LC_CTYPE>
   1073a:	ec2a                	c.sdsp	a0,24(sp)
   1073c:	e42e                	c.sdsp	a1,8(sp)
   1073e:	e832                	c.sdsp	a2,16(sp)
   10740:	893e                	c.mv	s2,a5
   10742:	8436                	c.mv	s0,a3
   10744:	84ba                	c.mv	s1,a4
   10746:	4781                	c.li	a5,0
   10748:	00088663          	beqz	a7,10754 <__libc_start_main+0x2c>
   1074c:	0008a783          	lw	a5,0(a7)
   10750:	0017b793          	seqz	a5,a5
   10754:	65a2                	c.ldsp	a1,8(sp)
   10756:	6642                	c.ldsp	a2,16(sp)
   10758:	00158513          	addi	a0,a1,1
   1075c:	0ea6055b          	lea.d	a0,a2,a0
   10760:	9af1a023          	sw	a5,-1632(gp) # 6cab0 <__libc_multiple_libcs>
   10764:	b0a1b023          	sd	a0,-1280(gp) # 6cc10 <__environ>
   10768:	0005b597          	auipc	a1,0x5b
   1076c:	8505b423          	sd	a6,-1976(a1) # 6afb0 <__libc_stack_end>
   10770:	0521                	c.addi	a0,8
   10772:	ff853783          	ld	a5,-8(a0)
   10776:	ffed                	c.bnez	a5,10770 <__libc_start_main+0x48>
   10778:	06c130ef          	jal	ra,237e4 <_dl_aux_init>
   1077c:	0005d797          	auipc	a5,0x5d
   10780:	77478793          	addi	a5,a5,1908 # 6def0 <_dl_phdr>
   10784:	0007b703          	ld	a4,0(a5)
   10788:	0c070863          	beqz	a4,10858 <__libc_start_main+0x130>
   1078c:	079130ef          	jal	ra,24004 <__libc_init_secure>
   10790:	b001b503          	ld	a0,-1280(gp) # 6cc10 <__environ>
   10794:	435120ef          	jal	ra,233c8 <__tunables_init>
   10798:	238000ef          	jal	ra,109d0 <__libc_setup_tls>
   1079c:	0005b797          	auipc	a5,0x5b
   107a0:	8047b783          	ld	a5,-2044(a5) # 6afa0 <_dl_random>
   107a4:	0007b783          	ld	a5,0(a5)
   107a8:	9a01a703          	lw	a4,-1632(gp) # 6cab0 <__libc_multiple_libcs>
   107ac:	f007f793          	andi	a5,a5,-256
   107b0:	0005a617          	auipc	a2,0x5a
   107b4:	3ef63823          	sd	a5,1008(a2) # 6aba0 <__fini_array_end>
   107b8:	0e070463          	beqz	a4,108a0 <__libc_start_main+0x178>
   107bc:	ffff0797          	auipc	a5,0xffff0
   107c0:	84478793          	addi	a5,a5,-1980 # 0 <_nl_current_LC_CTYPE>
   107c4:	00078663          	beqz	a5,107d0 <__libc_start_main+0xa8>
   107c8:	00000097          	auipc	ra,0x0
   107cc:	000000e7          	jalr	zero # 0 <_nl_current_LC_CTYPE>
   107d0:	0005a797          	auipc	a5,0x5a
   107d4:	7d07b783          	ld	a5,2000(a5) # 6afa0 <_dl_random>
   107d8:	679c                	c.ld	a5,8(a5)
   107da:	0005a617          	auipc	a2,0x5a
   107de:	3cf63723          	sd	a5,974(a2) # 6aba8 <__pointer_chk_guard_local>
   107e2:	00090763          	beqz	s2,107f0 <__libc_start_main+0xc8>
   107e6:	4601                	c.li	a2,0
   107e8:	4581                	c.li	a1,0
   107ea:	854a                	c.mv	a0,s2
   107ec:	081040ef          	jal	ra,1506c <__cxa_atexit>
   107f0:	65c2                	c.ldsp	a1,16(sp)
   107f2:	6522                	c.ldsp	a0,8(sp)
   107f4:	b001b603          	ld	a2,-1280(gp) # 6cc10 <__environ>
   107f8:	185130ef          	jal	ra,2417c <__libc_init_first>
   107fc:	c491                	c.beqz	s1,10808 <__libc_start_main+0xe0>
   107fe:	4601                	c.li	a2,0
   10800:	4581                	c.li	a1,0
   10802:	8526                	c.mv	a0,s1
   10804:	069040ef          	jal	ra,1506c <__cxa_atexit>
   10808:	0005a797          	auipc	a5,0x5a
   1080c:	7b07a783          	lw	a5,1968(a5) # 6afb8 <__libc_enable_secure>
   10810:	00078463          	beqz	a5,10818 <__libc_start_main+0xf0>
   10814:	190000ef          	jal	ra,109a4 <__libc_check_standard_fds>
   10818:	c411                	c.beqz	s0,10824 <__libc_start_main+0xfc>
   1081a:	65c2                	c.ldsp	a1,16(sp)
   1081c:	6522                	c.ldsp	a0,8(sp)
   1081e:	b001b603          	ld	a2,-1280(gp) # 6cc10 <__environ>
   10822:	9402                	c.jalr	s0
   10824:	4581                	c.li	a1,0
   10826:	4501                	c.li	a0,0
   10828:	291120ef          	jal	ra,232b8 <_dl_debug_initialize>
   1082c:	02810513          	addi	a0,sp,40
   10830:	3c1030ef          	jal	ra,143f0 <_setjmp>
   10834:	e155                	c.bnez	a0,108d8 <__libc_start_main+0x1b0>
   10836:	9f023683          	ld	a3,-1552(tp) # fffffffffffff9f0 <_end+0xfffffffffff91a18>
   1083a:	9e823703          	ld	a4,-1560(tp) # fffffffffffff9e8 <_end+0xfffffffffff91a10>
   1083e:	65c2                	c.ldsp	a1,16(sp)
   10840:	6522                	c.ldsp	a0,8(sp)
   10842:	6462                	c.ldsp	s0,24(sp)
   10844:	e63a                	c.sdsp	a4,264(sp)
   10846:	e236                	c.sdsp	a3,256(sp)
   10848:	b001b603          	ld	a2,-1280(gp) # 6cc10 <__environ>
   1084c:	1038                	c.addi4spn	a4,sp,40
   1084e:	9ee23823          	sd	a4,-1552(tp) # fffffffffffff9f0 <_end+0xfffffffffff91a18>
   10852:	9402                	c.jalr	s0
   10854:	678040ef          	jal	ra,14ecc <exit>
   10858:	fffff717          	auipc	a4,0xfffff
   1085c:	7a870713          	addi	a4,a4,1960 # 10000 <__ehdr_start>
   10860:	f20706e3          	beqz	a4,1078c <__libc_start_main+0x64>
   10864:	03675683          	lhu	a3,54(a4)
   10868:	0386d2db          	beqc	a3,56,1088c <__libc_start_main+0x164>
   1086c:	0003c697          	auipc	a3,0x3c
   10870:	eec68693          	addi	a3,a3,-276 # 4c758 <__PRETTY_FUNCTION__.10972>
   10874:	0b400613          	li	a2,180
   10878:	0003c597          	auipc	a1,0x3c
   1087c:	e6058593          	addi	a1,a1,-416 # 4c6d8 <buffer_free+0x380>
   10880:	0003c517          	auipc	a0,0x3c
   10884:	e6850513          	addi	a0,a0,-408 # 4c6e8 <buffer_free+0x390>
   10888:	4f0000ef          	jal	ra,10d78 <__assert_fail>
   1088c:	7314                	c.ld	a3,32(a4)
   1088e:	03875603          	lhu	a2,56(a4)
   10892:	9736                	c.add	a4,a3
   10894:	e398                	c.sd	a4,0(a5)
   10896:	0005d697          	auipc	a3,0x5d
   1089a:	68c6b923          	sd	a2,1682(a3) # 6df28 <_dl_phnum>
   1089e:	b5fd                	c.j	1078c <__libc_start_main+0x64>
   108a0:	7f0130ef          	jal	ra,24090 <_dl_discover_osversion>
   108a4:	06054663          	bltz	a0,10910 <__libc_start_main+0x1e8>
   108a8:	0005d717          	auipc	a4,0x5d
   108ac:	6a072703          	lw	a4,1696(a4) # 6df48 <_dl_osversion>
   108b0:	7c0537db          	bfos	a5,a0,31,0
   108b4:	04071a63          	bnez	a4,10908 <__libc_start_main+0x1e0>
   108b8:	0005d617          	auipc	a2,0x5d
   108bc:	68f62823          	sw	a5,1680(a2) # 6df48 <_dl_osversion>
   108c0:	000417b7          	lui	a5,0x41
   108c4:	eff78793          	addi	a5,a5,-257 # 40eff <_dl_start_profile+0x313>
   108c8:	eea7cae3          	blt	a5,a0,107bc <__libc_start_main+0x94>
   108cc:	0003c517          	auipc	a0,0x3c
   108d0:	e4c50513          	addi	a0,a0,-436 # 4c718 <buffer_free+0x3c0>
   108d4:	339060ef          	jal	ra,1740c <__libc_fatal>
   108d8:	00000097          	auipc	ra,0x0
   108dc:	000000e7          	jalr	zero # 0 <_nl_current_LC_CTYPE>
   108e0:	fffef717          	auipc	a4,0xfffef
   108e4:	72070713          	addi	a4,a4,1824 # 0 <_nl_current_LC_CTYPE>
   108e8:	fff00693          	li	a3,-1
   108ec:	04d727af          	amoadd.w.aq	a5,a3,(a4)
   108f0:	7c07b7db          	bfos	a5,a5,31,0
   108f4:	0017d85b          	beqc	a5,1,10904 <__libc_start_main+0x1dc>
   108f8:	05d00893          	li	a7,93
   108fc:	4501                	c.li	a0,0
   108fe:	00000073          	ecall
   10902:	bfdd                	c.j	108f8 <__libc_start_main+0x1d0>
   10904:	4501                	c.li	a0,0
   10906:	b7b9                	c.j	10854 <__libc_start_main+0x12c>
   10908:	fae7fce3          	bgeu	a5,a4,108c0 <__libc_start_main+0x198>
   1090c:	fadff06f          	j	108b8 <__libc_start_main+0x190>
   10910:	0003c517          	auipc	a0,0x3c
   10914:	e2050513          	addi	a0,a0,-480 # 4c730 <buffer_free+0x3d8>
   10918:	2f5060ef          	jal	ra,1740c <__libc_fatal>
   1091c:	0000                	unimp
	...

0000000000010920 <check_one_fd>:
   10920:	7135                	c.addi16sp	sp,-160
   10922:	e922                	c.sdsp	s0,144(sp)
   10924:	842e                	c.mv	s0,a1
   10926:	4585                	c.li	a1,1
   10928:	e526                	c.sdsp	s1,136(sp)
   1092a:	ed06                	c.sdsp	ra,152(sp)
   1092c:	e14a                	c.sdsp	s2,128(sp)
   1092e:	84aa                	c.mv	s1,a0
   10930:	0d5110ef          	jal	ra,22204 <__fcntl64_nocancel>
   10934:	fff00793          	li	a5,-1
   10938:	00f50863          	beq	a0,a5,10948 <check_one_fd+0x28>
   1093c:	60ea                	c.ldsp	ra,152(sp)
   1093e:	644a                	c.ldsp	s0,144(sp)
   10940:	64aa                	c.ldsp	s1,136(sp)
   10942:	690a                	c.ldsp	s2,128(sp)
   10944:	610d                	c.addi16sp	sp,160
   10946:	8082                	c.jr	ra
   10948:	02022783          	lw	a5,32(tp) # 20 <__libc_errno>
   1094c:	be97e85b          	bnec	a5,9,1093c <check_one_fd+0x1c>
   10950:	000207b7          	lui	a5,0x20
   10954:	04f41063          	bne	s0,a5,10994 <check_one_fd+0x74>
   10958:	10300913          	li	s2,259
   1095c:	0003c517          	auipc	a0,0x3c
   10960:	e2450513          	addi	a0,a0,-476 # 4c780 <__PRETTY_FUNCTION__.10972+0x28>
   10964:	4601                	c.li	a2,0
   10966:	85a2                	c.mv	a1,s0
   10968:	0bd110ef          	jal	ra,22224 <__open64_nocancel>
   1096c:	02a49263          	bne	s1,a0,10990 <check_one_fd+0x70>
   10970:	860a                	c.mv	a2,sp
   10972:	85a6                	c.mv	a1,s1
   10974:	00000513          	li	a0,0
   10978:	164110ef          	jal	ra,21adc <__fxstat>
   1097c:	e911                	c.bnez	a0,10990 <check_one_fd+0x70>
   1097e:	47c2                	c.lwsp	a5,16(sp)
   10980:	673d                	c.lui	a4,0xf
   10982:	8ff9                	c.and	a5,a4
   10984:	6709                	c.lui	a4,0x2
   10986:	00e79563          	bne	a5,a4,10990 <check_one_fd+0x70>
   1098a:	7782                	c.ldsp	a5,32(sp)
   1098c:	fb2788e3          	beq	a5,s2,1093c <check_one_fd+0x1c>
   10990:	9002                	c.ebreak
   10992:	0001                	c.nop
   10994:	10700913          	li	s2,263
   10998:	0003c517          	auipc	a0,0x3c
   1099c:	dd850513          	addi	a0,a0,-552 # 4c770 <__PRETTY_FUNCTION__.10972+0x18>
   109a0:	fc5ff06f          	j	10964 <check_one_fd+0x44>

00000000000109a4 <__libc_check_standard_fds>:
   109a4:	000205b7          	lui	a1,0x20
   109a8:	1141                	c.addi	sp,-16
   109aa:	0585                	c.addi	a1,1
   109ac:	4501                	c.li	a0,0
   109ae:	e406                	c.sdsp	ra,8(sp)
   109b0:	f71ff0ef          	jal	ra,10920 <check_one_fd>
   109b4:	000205b7          	lui	a1,0x20
   109b8:	00100513          	li	a0,1
   109bc:	f65ff0ef          	jal	ra,10920 <check_one_fd>
   109c0:	60a2                	c.ldsp	ra,8(sp)
   109c2:	000205b7          	lui	a1,0x20
   109c6:	4509                	c.li	a0,2
   109c8:	0141                	c.addi	sp,16
   109ca:	f57ff06f          	j	10920 <check_one_fd>
	...

00000000000109d0 <__libc_setup_tls>:
   109d0:	7119                	c.addi16sp	sp,-128
   109d2:	f4a6                	c.sdsp	s1,104(sp)
   109d4:	fc86                	c.sdsp	ra,120(sp)
   109d6:	f8a2                	c.sdsp	s0,112(sp)
   109d8:	f0ca                	c.sdsp	s2,96(sp)
   109da:	ecce                	c.sdsp	s3,88(sp)
   109dc:	e8d2                	c.sdsp	s4,80(sp)
   109de:	e4d6                	c.sdsp	s5,72(sp)
   109e0:	e0da                	c.sdsp	s6,64(sp)
   109e2:	fc5e                	c.sdsp	s7,56(sp)
   109e4:	f862                	c.sdsp	s8,48(sp)
   109e6:	f466                	c.sdsp	s9,40(sp)
   109e8:	f06a                	c.sdsp	s10,32(sp)
   109ea:	ec6e                	c.sdsp	s11,24(sp)
   109ec:	0005d797          	auipc	a5,0x5d
   109f0:	5047b783          	ld	a5,1284(a5) # 6def0 <_dl_phdr>
   109f4:	0005c497          	auipc	s1,0x5c
   109f8:	a244b483          	ld	s1,-1500(s1) # 6c418 <_dl_ns>
   109fc:	c3b5                	c.beqz	a5,10a60 <__libc_setup_tls+0x90>
   109fe:	03800713          	li	a4,56
   10a02:	0005d697          	auipc	a3,0x5d
   10a06:	5266b683          	ld	a3,1318(a3) # 6df28 <_dl_phnum>
   10a0a:	02d70733          	mul	a4,a4,a3
   10a0e:	973e                	c.add	a4,a5
   10a10:	00e7e863          	bltu	a5,a4,10a20 <__libc_setup_tls+0x50>
   10a14:	04c0006f          	j	10a60 <__libc_setup_tls+0x90>
   10a18:	03878793          	addi	a5,a5,56
   10a1c:	04e7f263          	bgeu	a5,a4,10a60 <__libc_setup_tls+0x90>
   10a20:	4394                	c.lw	a3,0(a5)
   10a22:	be76eb5b          	bnec	a3,7,10a18 <__libc_setup_tls+0x48>
   10a26:	0004b983          	ld	s3,0(s1)
   10a2a:	6b94                	c.ld	a3,16(a5)
   10a2c:	0307bb83          	ld	s7,48(a5)
   10a30:	4741                	c.li	a4,16
   10a32:	0287bc03          	ld	s8,40(a5)
   10a36:	0207ba03          	ld	s4,32(a5)
   10a3a:	99b6                	c.add	s3,a3
   10a3c:	13776063          	bltu	a4,s7,10b5c <__libc_setup_tls+0x18c>
   10a40:	120b8663          	beqz	s7,10b6c <__libc_setup_tls+0x19c>
   10a44:	5641                	c.li	a2,-16
   10a46:	fffb8413          	addi	s0,s7,-1
   10a4a:	4abd                	c.li	s5,15
   10a4c:	4d41                	c.li	s10,16
   10a4e:	e432                	c.sdsp	a2,8(sp)
   10a50:	037457b3          	divu	a5,s0,s7
   10a54:	8cde                	c.mv	s9,s7
   10a56:	9462                	c.add	s0,s8
   10a58:	03778b33          	mul	s6,a5,s7
   10a5c:	8dda                	c.mv	s11,s6
   10a5e:	a829                	c.j	10a78 <__libc_setup_tls+0xa8>
   10a60:	55c1                	c.li	a1,-16
   10a62:	4b01                	c.li	s6,0
   10a64:	4abd                	c.li	s5,15
   10a66:	4401                	c.li	s0,0
   10a68:	4d81                	c.li	s11,0
   10a6a:	4d41                	c.li	s10,16
   10a6c:	4b81                	c.li	s7,0
   10a6e:	4981                	c.li	s3,0
   10a70:	4a01                	c.li	s4,0
   10a72:	4c01                	c.li	s8,0
   10a74:	4c85                	c.li	s9,1
   10a76:	e42e                	c.sdsp	a1,8(sp)
   10a78:	8b01b503          	ld	a0,-1872(gp) # 6c9c0 <_dl_tls_static_size>
   10a7c:	71050513          	addi	a0,a0,1808
   10a80:	955a                	c.add	a0,s6
   10a82:	9562                	c.add	a0,s8
   10a84:	01a50533          	add	a0,a0,s10
   10a88:	0d1110ef          	jal	ra,22358 <__sbrk>
   10a8c:	65a2                	c.ldsp	a1,8(sp)
   10a8e:	71050913          	addi	s2,a0,1808
   10a92:	9956                	c.add	s2,s5
   10a94:	00b97933          	and	s2,s2,a1
   10a98:	016907b3          	add	a5,s2,s6
   10a9c:	85ce                	c.mv	a1,s3
   10a9e:	03e00713          	li	a4,62
   10aa2:	8652                	c.mv	a2,s4
   10aa4:	00f00533          	add	a0,zero,a5
   10aa8:	0005d697          	auipc	a3,0x5d
   10aac:	f8e6b423          	sd	a4,-120(a3) # 6da30 <_dl_static_dtv>
   10ab0:	0005d697          	auipc	a3,0x5d
   10ab4:	faf6b023          	sd	a5,-96(a3) # 6da50 <_dl_static_dtv+0x20>
   10ab8:	43b4bc23          	sd	s11,1080(s1)
   10abc:	0005d717          	auipc	a4,0x5d
   10ac0:	f8073e23          	sd	zero,-100(a4) # 6da58 <_dl_static_dtv+0x28>
   10ac4:	1f0100ef          	jal	ra,20cb4 <memcpy>
   10ac8:	039457b3          	divu	a5,s0,s9
   10acc:	8b01b703          	ld	a4,-1872(gp) # 6c9c0 <_dl_tls_static_size>
   10ad0:	073d                	c.addi	a4,15
   10ad2:	0005d697          	auipc	a3,0x5d
   10ad6:	f6e68693          	addi	a3,a3,-146 # 6da40 <_dl_static_dtv+0x10>
   10ada:	fed93823          	sd	a3,-16(s2)
   10ade:	4685                	c.li	a3,1
   10ae0:	cc91b823          	sd	s1,-816(gp) # 6cde0 <static_slotinfo+0x28>
   10ae4:	04000613          	li	a2,64
   10ae8:	0005d417          	auipc	s0,0x5d
   10aec:	f4d43023          	sd	a3,-192(s0) # 6da28 <_dl_tls_max_dtv_idx>
   10af0:	cac1b423          	sd	a2,-856(gp) # 6cdb8 <static_slotinfo>
   10af4:	70e6                	c.ldsp	ra,120(sp)
   10af6:	ca818613          	addi	a2,gp,-856 # 6cdb8 <static_slotinfo>
   10afa:	0005d597          	auipc	a1,0x5d
   10afe:	32c5bb23          	sd	a2,822(a1) # 6de30 <_dl_tls_dtv_slotinfo_list>
   10b02:	4374b423          	sd	s7,1064(s1)
   10b06:	4384b023          	sd	s8,1056(s1)
   10b0a:	4134b823          	sd	s3,1040(s1)
   10b0e:	4144bc23          	sd	s4,1048(s1)
   10b12:	0005d617          	auipc	a2,0x5d
   10b16:	f1a63723          	sd	s10,-242(a2) # 6da20 <_dl_tls_static_align>
   10b1a:	44d4b023          	sd	a3,1088(s1)
   10b1e:	0005d597          	auipc	a1,0x5d
   10b22:	32d5b523          	sd	a3,810(a1) # 6de48 <_dl_tls_static_nelem>
   10b26:	74a6                	c.ldsp	s1,104(sp)
   10b28:	69e6                	c.ldsp	s3,88(sp)
   10b2a:	6a46                	c.ldsp	s4,80(sp)
   10b2c:	6aa6                	c.ldsp	s5,72(sp)
   10b2e:	7be2                	c.ldsp	s7,56(sp)
   10b30:	7c42                	c.ldsp	s8,48(sp)
   10b32:	7d02                	c.ldsp	s10,32(sp)
   10b34:	6de2                	c.ldsp	s11,24(sp)
   10b36:	824a                	c.mv	tp,s2
   10b38:	7906                	c.ldsp	s2,96(sp)
   10b3a:	039787b3          	mul	a5,a5,s9
   10b3e:	7ca2                	c.ldsp	s9,40(sp)
   10b40:	97da                	c.add	a5,s6
   10b42:	973e                	c.add	a4,a5
   10b44:	9b41                	c.andi	a4,-16
   10b46:	8ae1b823          	sd	a4,-1872(gp) # 6c9c0 <_dl_tls_static_size>
   10b4a:	7446                	c.ldsp	s0,112(sp)
   10b4c:	0005d617          	auipc	a2,0x5d
   10b50:	ecf63623          	sd	a5,-308(a2) # 6da18 <_dl_tls_static_used>
   10b54:	6b06                	c.ldsp	s6,64(sp)
   10b56:	6109                	c.addi16sp	sp,128
   10b58:	00008067          	ret
   10b5c:	41700433          	neg	s0,s7
   10b60:	fffb8a93          	addi	s5,s7,-1
   10b64:	e422                	c.sdsp	s0,8(sp)
   10b66:	8d5e                	c.mv	s10,s7
   10b68:	8456                	c.mv	s0,s5
   10b6a:	b5dd                	c.j	10a50 <__libc_setup_tls+0x80>
   10b6c:	55c1                	c.li	a1,-16
   10b6e:	4b01                	c.li	s6,0
   10b70:	8462                	c.mv	s0,s8
   10b72:	4abd                	c.li	s5,15
   10b74:	4d81                	c.li	s11,0
   10b76:	e42e                	c.sdsp	a1,8(sp)
   10b78:	4d41                	c.li	s10,16
   10b7a:	4c85                	c.li	s9,1
   10b7c:	efdff06f          	j	10a78 <__libc_setup_tls+0xa8>

0000000000010b80 <__tls_get_addr>:
   10b80:	ff023703          	ld	a4,-16(tp) # fffffffffffffff0 <_end+0xfffffffffff92018>
   10b84:	651c                	c.ld	a5,8(a0)
   10b86:	6b08                	c.ld	a0,16(a4)
   10b88:	6705                	c.lui	a4,0x1
   10b8a:	80070713          	addi	a4,a4,-2048 # 800 <catch_hook+0x7a8>
   10b8e:	97ba                	c.add	a5,a4
   10b90:	953e                	c.add	a0,a5
   10b92:	8082                	c.jr	ra

0000000000010b94 <__libc_csu_init>:
   10b94:	7139                	c.addi16sp	sp,-64
   10b96:	f822                	c.sdsp	s0,48(sp)
   10b98:	e456                	c.sdsp	s5,8(sp)
   10b9a:	0005a417          	auipc	s0,0x5a
   10b9e:	fe640413          	addi	s0,s0,-26 # 6ab80 <__preinit_array_start>
   10ba2:	0005aa97          	auipc	s5,0x5a
   10ba6:	fe6a8a93          	addi	s5,s5,-26 # 6ab88 <__preinit_array_end>
   10baa:	408a8ab3          	sub	s5,s5,s0
   10bae:	f04a                	c.sdsp	s2,32(sp)
   10bb0:	ec4e                	c.sdsp	s3,24(sp)
   10bb2:	e852                	c.sdsp	s4,16(sp)
   10bb4:	fc06                	c.sdsp	ra,56(sp)
   10bb6:	f426                	c.sdsp	s1,40(sp)
   10bb8:	403ada93          	srai	s5,s5,0x3
   10bbc:	892a                	c.mv	s2,a0
   10bbe:	89ae                	c.mv	s3,a1
   10bc0:	8a32                	c.mv	s4,a2
   10bc2:	000a8d63          	beqz	s5,10bdc <__libc_csu_init+0x48>
   10bc6:	4481                	c.li	s1,0
   10bc8:	601c                	c.ld	a5,0(s0)
   10bca:	8652                	c.mv	a2,s4
   10bcc:	85ce                	c.mv	a1,s3
   10bce:	854a                	c.mv	a0,s2
   10bd0:	0485                	c.addi	s1,1
   10bd2:	9782                	c.jalr	a5
   10bd4:	00840413          	addi	s0,s0,8
   10bd8:	fe9a98e3          	bne	s5,s1,10bc8 <__libc_csu_init+0x34>
   10bdc:	0005a417          	auipc	s0,0x5a
   10be0:	fac40413          	addi	s0,s0,-84 # 6ab88 <__preinit_array_end>
   10be4:	0005aa97          	auipc	s5,0x5a
   10be8:	faca8a93          	addi	s5,s5,-84 # 6ab90 <__init_array_end>
   10bec:	408a8ab3          	sub	s5,s5,s0
   10bf0:	403ada93          	srai	s5,s5,0x3
   10bf4:	000a8e63          	beqz	s5,10c10 <__libc_csu_init+0x7c>
   10bf8:	00000493          	li	s1,0
   10bfc:	601c                	c.ld	a5,0(s0)
   10bfe:	8652                	c.mv	a2,s4
   10c00:	85ce                	c.mv	a1,s3
   10c02:	854a                	c.mv	a0,s2
   10c04:	0485                	c.addi	s1,1
   10c06:	9782                	c.jalr	a5
   10c08:	00840413          	addi	s0,s0,8
   10c0c:	fe9a98e3          	bne	s5,s1,10bfc <__libc_csu_init+0x68>
   10c10:	70e2                	c.ldsp	ra,56(sp)
   10c12:	7442                	c.ldsp	s0,48(sp)
   10c14:	74a2                	c.ldsp	s1,40(sp)
   10c16:	7902                	c.ldsp	s2,32(sp)
   10c18:	69e2                	c.ldsp	s3,24(sp)
   10c1a:	6a42                	c.ldsp	s4,16(sp)
   10c1c:	6aa2                	c.ldsp	s5,8(sp)
   10c1e:	6121                	c.addi16sp	sp,64
   10c20:	00008067          	ret

0000000000010c24 <__libc_csu_fini>:
   10c24:	1101                	c.addi	sp,-32
   10c26:	e822                	c.sdsp	s0,16(sp)
   10c28:	0005a797          	auipc	a5,0x5a
   10c2c:	f7878793          	addi	a5,a5,-136 # 6aba0 <__fini_array_end>
   10c30:	0005a417          	auipc	s0,0x5a
   10c34:	f6040413          	addi	s0,s0,-160 # 6ab90 <__init_array_end>
   10c38:	8f81                	c.sub	a5,s0
   10c3a:	ec06                	c.sdsp	ra,24(sp)
   10c3c:	e426                	c.sdsp	s1,8(sp)
   10c3e:	e04a                	c.sdsp	s2,0(sp)
   10c40:	4037d713          	srai	a4,a5,0x3
   10c44:	cf01                	c.beqz	a4,10c5c <__libc_csu_fini+0x38>
   10c46:	17e1                	c.addi	a5,-8
   10c48:	fff70493          	addi	s1,a4,-1
   10c4c:	943e                	c.add	s0,a5
   10c4e:	597d                	c.li	s2,-1
   10c50:	601c                	c.ld	a5,0(s0)
   10c52:	14fd                	c.addi	s1,-1
   10c54:	9782                	c.jalr	a5
   10c56:	1461                	c.addi	s0,-8
   10c58:	ff249ce3          	bne	s1,s2,10c50 <__libc_csu_fini+0x2c>
   10c5c:	60e2                	c.ldsp	ra,24(sp)
   10c5e:	6442                	c.ldsp	s0,16(sp)
   10c60:	64a2                	c.ldsp	s1,8(sp)
   10c62:	6902                	c.ldsp	s2,0(sp)
   10c64:	6105                	c.addi16sp	sp,32
   10c66:	8082                	c.jr	ra

0000000000010c68 <__assert_fail_base>:
   10c68:	715d                	c.addi16sp	sp,-80
   10c6a:	e0a2                	c.sdsp	s0,64(sp)
   10c6c:	fc26                	c.sdsp	s1,56(sp)
   10c6e:	f84a                	c.sdsp	s2,48(sp)
   10c70:	e486                	c.sdsp	ra,72(sp)
   10c72:	fffef817          	auipc	a6,0xfffef
   10c76:	38e80813          	addi	a6,a6,910 # 0 <_nl_current_LC_CTYPE>
   10c7a:	84aa                	c.mv	s1,a0
   10c7c:	842e                	c.mv	s0,a1
   10c7e:	8932                	c.mv	s2,a2
   10c80:	87b6                	c.mv	a5,a3
   10c82:	00080d63          	beqz	a6,10c9c <__assert_fail_base+0x34>
   10c86:	4581                	c.li	a1,0
   10c88:	4505                	c.li	a0,1
   10c8a:	ec3a                	c.sdsp	a4,24(sp)
   10c8c:	00d13823          	sd	a3,16(sp)
   10c90:	00000097          	auipc	ra,0x0
   10c94:	000000e7          	jalr	zero # 0 <_nl_current_LC_CTYPE>
   10c98:	6762                	c.ldsp	a4,24(sp)
   10c9a:	67c2                	c.ldsp	a5,16(sp)
   10c9c:	9401b603          	ld	a2,-1728(gp) # 6ca50 <__progname>
   10ca0:	00064583          	lbu	a1,0(a2)
   10ca4:	0003c697          	auipc	a3,0x3c
   10ca8:	aec68693          	addi	a3,a3,-1300 # 4c790 <__PRETTY_FUNCTION__.10972+0x38>
   10cac:	00059663          	bnez	a1,10cb8 <__assert_fail_base+0x50>
   10cb0:	0004c697          	auipc	a3,0x4c
   10cb4:	8f868693          	addi	a3,a3,-1800 # 5c5a8 <step3b_jumps.12768+0x1e0>
   10cb8:	0003c897          	auipc	a7,0x3c
   10cbc:	ad888893          	addi	a7,a7,-1320 # 4c790 <__PRETTY_FUNCTION__.10972+0x38>
   10cc0:	0a070063          	beqz	a4,10d60 <__assert_fail_base+0xf8>
   10cc4:	883a                	c.mv	a6,a4
   10cc6:	02410313          	addi	t1,sp,36
   10cca:	874a                	c.mv	a4,s2
   10ccc:	85a6                	c.mv	a1,s1
   10cce:	1028                	c.addi4spn	a0,sp,40
   10cd0:	e41a                	c.sdsp	t1,8(sp)
   10cd2:	e022                	c.sdsp	s0,0(sp)
   10cd4:	4ad040ef          	jal	ra,15980 <___asprintf>
   10cd8:	06054a63          	bltz	a0,10d4c <__assert_fail_base+0xe4>
   10cdc:	7622                	c.ldsp	a2,40(sp)
   10cde:	00054597          	auipc	a1,0x54
   10ce2:	2d258593          	addi	a1,a1,722 # 64fb0 <__sys_errlist_internal+0x448>
   10ce6:	4501                	c.li	a0,0
   10ce8:	665040ef          	jal	ra,15b4c <__fxprintf>
   10cec:	8e81b503          	ld	a0,-1816(gp) # 6c9f8 <_IO_stderr>
   10cf0:	144050ef          	jal	ra,15e34 <_IO_fflush>
   10cf4:	5812                	c.lwsp	a6,36(sp)
   10cf6:	9681a783          	lw	a5,-1688(gp) # 6ca78 <_dl_pagesize>
   10cfa:	00f8083b          	addw	a6,a6,a5
   10cfe:	40f007bb          	negw	a5,a5
   10d02:	00f87833          	and	a6,a6,a5
   10d06:	7c08385b          	bfos	a6,a6,31,0
   10d0a:	4781                	c.li	a5,0
   10d0c:	577d                	c.li	a4,-1
   10d0e:	02200693          	li	a3,34
   10d12:	460d                	c.li	a2,3
   10d14:	85c2                	c.mv	a1,a6
   10d16:	4501                	c.li	a0,0
   10d18:	03012223          	sw	a6,36(sp)
   10d1c:	71c110ef          	jal	ra,22438 <__mmap64>
   10d20:	57fd                	c.li	a5,-1
   10d22:	842a                	c.mv	s0,a0
   10d24:	00f50e63          	beq	a0,a5,10d40 <__assert_fail_base+0xd8>
   10d28:	5792                	c.lwsp	a5,36(sp)
   10d2a:	75a2                	c.ldsp	a1,40(sp)
   10d2c:	0511                	c.addi	a0,4
   10d2e:	c01c                	c.sw	a5,0(s0)
   10d30:	7290e0ef          	jal	ra,1fc58 <strcpy>
   10d34:	a7818793          	addi	a5,gp,-1416 # 6cb88 <__abort_msg>
   10d38:	0c87b42f          	amoswap.d.aq	s0,s0,(a5)
   10d3c:	8522                	c.mv	a0,s0
   10d3e:	e41d                	c.bnez	s0,10d6c <__assert_fail_base+0x104>
   10d40:	02813503          	ld	a0,40(sp)
   10d44:	6f10d0ef          	jal	ra,1ec34 <__free>
   10d48:	085030ef          	jal	ra,145cc <abort>
   10d4c:	4649                	c.li	a2,18
   10d4e:	0003c597          	auipc	a1,0x3c
   10d52:	a7a58593          	addi	a1,a1,-1414 # 4c7c8 <errstr.11175>
   10d56:	4509                	c.li	a0,2
   10d58:	6f1100ef          	jal	ra,21c48 <__libc_write>
   10d5c:	fedff06f          	j	10d48 <__assert_fail_base+0xe0>
   10d60:	0004c717          	auipc	a4,0x4c
   10d64:	84870713          	addi	a4,a4,-1976 # 5c5a8 <step3b_jumps.12768+0x1e0>
   10d68:	88ba                	c.mv	a7,a4
   10d6a:	bfa9                	c.j	10cc4 <__assert_fail_base+0x5c>
   10d6c:	00046583          	lwu	a1,0(s0)
   10d70:	6f8110ef          	jal	ra,22468 <__munmap>
   10d74:	fcdff06f          	j	10d40 <__assert_fail_base+0xd8>

0000000000010d78 <__assert_fail>:
   10d78:	7179                	c.addi16sp	sp,-48
   10d7a:	f022                	c.sdsp	s0,32(sp)
   10d7c:	ec26                	c.sdsp	s1,24(sp)
   10d7e:	e84a                	c.sdsp	s2,16(sp)
   10d80:	842a                	c.mv	s0,a0
   10d82:	84ae                	c.mv	s1,a1
   10d84:	8932                	c.mv	s2,a2
   10d86:	0003c597          	auipc	a1,0x3c
   10d8a:	a1258593          	addi	a1,a1,-1518 # 4c798 <__PRETTY_FUNCTION__.10972+0x40>
   10d8e:	4615                	c.li	a2,5
   10d90:	9b818513          	addi	a0,gp,-1608 # 6cac8 <_libc_intl_domainname>
   10d94:	e44e                	c.sdsp	s3,8(sp)
   10d96:	f406                	c.sdsp	ra,40(sp)
   10d98:	00d009b3          	add	s3,zero,a3
   10d9c:	010000ef          	jal	ra,10dac <__dcgettext>
   10da0:	874e                	c.mv	a4,s3
   10da2:	86ca                	c.mv	a3,s2
   10da4:	8626                	c.mv	a2,s1
   10da6:	85a2                	c.mv	a1,s0
   10da8:	ec1ff0ef          	jal	ra,10c68 <__assert_fail_base>

0000000000010dac <__dcgettext>:
   10dac:	87b2                	c.mv	a5,a2
   10dae:	4701                	c.li	a4,0
   10db0:	4681                	c.li	a3,0
   10db2:	4601                	c.li	a2,0
   10db4:	2390006f          	j	117ec <__dcigettext>
   10db8:	0000                	unimp
	...

0000000000010dbc <plural_eval>:
   10dbc:	1101                	c.addi	sp,-32
   10dbe:	e822                	c.sdsp	s0,16(sp)
   10dc0:	e426                	c.sdsp	s1,8(sp)
   10dc2:	e04a                	c.sdsp	s2,0(sp)
   10dc4:	842a                	c.mv	s0,a0
   10dc6:	ec06                	c.sdsp	ra,24(sp)
   10dc8:	892e                	c.mv	s2,a1
   10dca:	4485                	c.li	s1,1
   10dcc:	00042783          	lw	a5,0(s0)
   10dd0:	0217d45b          	beqc	a5,1,10df8 <plural_eval+0x3c>
   10dd4:	06f4d463          	bge	s1,a5,10e3c <plural_eval+0x80>
   10dd8:	0227de5b          	beqc	a5,2,10e14 <plural_eval+0x58>
   10ddc:	0637e85b          	bnec	a5,3,10e4c <plural_eval+0x90>
   10de0:	6408                	c.ld	a0,8(s0)
   10de2:	85ca                	c.mv	a1,s2
   10de4:	fd9ff0ef          	jal	ra,10dbc <plural_eval>
   10de8:	00153513          	seqz	a0,a0
   10dec:	0ea4045b          	lea.d	s0,s0,a0
   10df0:	6800                	c.ld	s0,16(s0)
   10df2:	401c                	c.lw	a5,0(s0)
   10df4:	be17e05b          	bnec	a5,1,10dd4 <plural_eval+0x18>
   10df8:	6408                	c.ld	a0,8(s0)
   10dfa:	85ca                	c.mv	a1,s2
   10dfc:	fc1ff0ef          	jal	ra,10dbc <plural_eval>
   10e00:	00153493          	seqz	s1,a0
   10e04:	60e2                	c.ldsp	ra,24(sp)
   10e06:	6442                	c.ldsp	s0,16(sp)
   10e08:	8526                	c.mv	a0,s1
   10e0a:	6902                	c.ldsp	s2,0(sp)
   10e0c:	64a2                	c.ldsp	s1,8(sp)
   10e0e:	6105                	c.addi16sp	sp,32
   10e10:	00008067          	ret
   10e14:	6408                	c.ld	a0,8(s0)
   10e16:	85ca                	c.mv	a1,s2
   10e18:	fa5ff0ef          	jal	ra,10dbc <plural_eval>
   10e1c:	405c                	c.lw	a5,4(s0)
   10e1e:	84aa                	c.mv	s1,a0
   10e20:	02f7de5b          	beqc	a5,15,10e5c <plural_eval+0xa0>
   10e24:	04e7e05b          	bnec	a5,14,10e64 <plural_eval+0xa8>
   10e28:	fc050ee3          	beqz	a0,10e04 <plural_eval+0x48>
   10e2c:	6808                	c.ld	a0,16(s0)
   10e2e:	85ca                	c.mv	a1,s2
   10e30:	f8dff0ef          	jal	ra,10dbc <plural_eval>
   10e34:	00a034b3          	snez	s1,a0
   10e38:	fcdff06f          	j	10e04 <plural_eval+0x48>
   10e3c:	eb81                	c.bnez	a5,10e4c <plural_eval+0x90>
   10e3e:	405c                	c.lw	a5,4(s0)
   10e40:	84ca                	c.mv	s1,s2
   10e42:	d3e9                	c.beqz	a5,10e04 <plural_eval+0x48>
   10e44:	0017e45b          	bnec	a5,1,10e4c <plural_eval+0x90>
   10e48:	6404                	c.ld	s1,8(s0)
   10e4a:	bf6d                	c.j	10e04 <plural_eval+0x48>
   10e4c:	60e2                	c.ldsp	ra,24(sp)
   10e4e:	6442                	c.ldsp	s0,16(sp)
   10e50:	4481                	c.li	s1,0
   10e52:	8526                	c.mv	a0,s1
   10e54:	6902                	c.ldsp	s2,0(sp)
   10e56:	64a2                	c.ldsp	s1,8(sp)
   10e58:	6105                	c.addi16sp	sp,32
   10e5a:	8082                	c.jr	ra
   10e5c:	d961                	c.beqz	a0,10e2c <plural_eval+0x70>
   10e5e:	4485                	c.li	s1,1
   10e60:	fa5ff06f          	j	10e04 <plural_eval+0x48>
   10e64:	6808                	c.ld	a0,16(s0)
   10e66:	85ca                	c.mv	a1,s2
   10e68:	f55ff0ef          	jal	ra,10dbc <plural_eval>
   10e6c:	405c                	c.lw	a5,4(s0)
   10e6e:	4729                	c.li	a4,10
   10e70:	37f5                	c.addiw	a5,-3
   10e72:	7c07b6db          	bfos	a3,a5,31,0
   10e76:	892a                	c.mv	s2,a0
   10e78:	fcd76ae3          	bltu	a4,a3,10e4c <plural_eval+0x90>
   10e7c:	0003c717          	auipc	a4,0x3c
   10e80:	96070713          	addi	a4,a4,-1696 # 4c7dc <errstr.11175+0x14>
   10e84:	14f707db          	lea.w.ze	a5,a4,a5
   10e88:	439c                	c.lw	a5,0(a5)
   10e8a:	97ba                	c.add	a5,a4
   10e8c:	00078067          	jr	a5
   10e90:	8c89                	c.sub	s1,a0
   10e92:	0014b493          	seqz	s1,s1
   10e96:	b7bd                	c.j	10e04 <plural_eval+0x48>
   10e98:	00a4b4b3          	sltu	s1,s1,a0
   10e9c:	0014c493          	xori	s1,s1,1
   10ea0:	7c04a4db          	bfoz	s1,s1,31,0
   10ea4:	f61ff06f          	j	10e04 <plural_eval+0x48>
   10ea8:	009534b3          	sltu	s1,a0,s1
   10eac:	0014c493          	xori	s1,s1,1
   10eb0:	7c04a4db          	bfoz	s1,s1,31,0
   10eb4:	f51ff06f          	j	10e04 <plural_eval+0x48>
   10eb8:	009534b3          	sltu	s1,a0,s1
   10ebc:	f49ff06f          	j	10e04 <plural_eval+0x48>
   10ec0:	00a4b4b3          	sltu	s1,s1,a0
   10ec4:	f41ff06f          	j	10e04 <plural_eval+0x48>
   10ec8:	8c89                	c.sub	s1,a0
   10eca:	bf2d                	c.j	10e04 <plural_eval+0x48>
   10ecc:	94aa                	c.add	s1,a0
   10ece:	bf1d                	c.j	10e04 <plural_eval+0x48>
   10ed0:	c105                	c.beqz	a0,10ef0 <plural_eval+0x134>
   10ed2:	0324f4b3          	remu	s1,s1,s2
   10ed6:	b73d                	c.j	10e04 <plural_eval+0x48>
   10ed8:	c505                	c.beqz	a0,10f00 <plural_eval+0x144>
   10eda:	0324d4b3          	divu	s1,s1,s2
   10ede:	b71d                	c.j	10e04 <plural_eval+0x48>
   10ee0:	02a484b3          	mul	s1,s1,a0
   10ee4:	f21ff06f          	j	10e04 <plural_eval+0x48>
   10ee8:	8c89                	c.sub	s1,a0
   10eea:	009034b3          	snez	s1,s1
   10eee:	bf19                	c.j	10e04 <plural_eval+0x48>
   10ef0:	00800513          	li	a0,8
   10ef4:	594030ef          	jal	ra,14488 <raise>
   10ef8:	0324f4b3          	remu	s1,s1,s2
   10efc:	f09ff06f          	j	10e04 <plural_eval+0x48>
   10f00:	00800513          	li	a0,8
   10f04:	584030ef          	jal	ra,14488 <raise>
   10f08:	0324d4b3          	divu	s1,s1,s2
   10f0c:	ef9ff06f          	j	10e04 <plural_eval+0x48>

0000000000010f10 <transcmp>:
   10f10:	1101                	c.addi	sp,-32
   10f12:	711c                	c.ld	a5,32(a0)
   10f14:	e822                	c.sdsp	s0,16(sp)
   10f16:	e426                	c.sdsp	s1,8(sp)
   10f18:	ec06                	c.sdsp	ra,24(sp)
   10f1a:	84aa                	c.mv	s1,a0
   10f1c:	842e                	c.mv	s0,a1
   10f1e:	03850513          	addi	a0,a0,56
   10f22:	cf9d                	c.beqz	a5,10f60 <transcmp+0x50>
   10f24:	701c                	c.ld	a5,32(s0)
   10f26:	03840593          	addi	a1,s0,56
   10f2a:	cb8d                	c.beqz	a5,10f5c <transcmp+0x4c>
   10f2c:	4c50e0ef          	jal	ra,1fbf0 <strcmp>
   10f30:	e105                	c.bnez	a0,10f50 <transcmp+0x40>
   10f32:	600c                	c.ld	a1,0(s0)
   10f34:	0004b503          	ld	a0,0(s1)
   10f38:	4b90e0ef          	jal	ra,1fbf0 <strcmp>
   10f3c:	e911                	c.bnez	a0,10f50 <transcmp+0x40>
   10f3e:	680c                	c.ld	a1,16(s0)
   10f40:	0104b503          	ld	a0,16(s1)
   10f44:	4ad0e0ef          	jal	ra,1fbf0 <strcmp>
   10f48:	e501                	c.bnez	a0,10f50 <transcmp+0x40>
   10f4a:	4488                	c.lw	a0,8(s1)
   10f4c:	441c                	c.lw	a5,8(s0)
   10f4e:	9d1d                	c.subw	a0,a5
   10f50:	60e2                	c.ldsp	ra,24(sp)
   10f52:	6442                	c.ldsp	s0,16(sp)
   10f54:	64a2                	c.ldsp	s1,8(sp)
   10f56:	6105                	c.addi16sp	sp,32
   10f58:	00008067          	ret
   10f5c:	7c0c                	c.ld	a1,56(s0)
   10f5e:	b7f9                	c.j	10f2c <transcmp+0x1c>
   10f60:	7c88                	c.ld	a0,56(s1)
   10f62:	b7c9                	c.j	10f24 <transcmp+0x14>

0000000000010f64 <plural_lookup.isra.2>:
   10f64:	7179                	c.addi16sp	sp,-48
   10f66:	e84a                	c.sdsp	s2,16(sp)
   10f68:	892a                	c.mv	s2,a0
   10f6a:	7d48                	c.ld	a0,184(a0)
   10f6c:	ec26                	c.sdsp	s1,24(sp)
   10f6e:	e44e                	c.sdsp	s3,8(sp)
   10f70:	f406                	c.sdsp	ra,40(sp)
   10f72:	f022                	c.sdsp	s0,32(sp)
   10f74:	89b2                	c.mv	s3,a2
   10f76:	84b6                	c.mv	s1,a3
   10f78:	e45ff0ef          	jal	ra,10dbc <plural_eval>
   10f7c:	0c093783          	ld	a5,192(s2)
   10f80:	02f57263          	bgeu	a0,a5,10fa4 <plural_lookup.isra.2+0x40>
   10f84:	842a                	c.mv	s0,a0
   10f86:	87ce                	c.mv	a5,s3
   10f88:	597d                	c.li	s2,-1
   10f8a:	94ce                	c.add	s1,s3
   10f8c:	147d                	c.addi	s0,-1
   10f8e:	853e                	c.mv	a0,a5
   10f90:	00000593          	li	a1,0
   10f94:	03240063          	beq	s0,s2,10fb4 <plural_lookup.isra.2+0x50>
   10f98:	1c8100ef          	jal	ra,21160 <__rawmemchr>
   10f9c:	00150793          	addi	a5,a0,1
   10fa0:	fe97e6e3          	bltu	a5,s1,10f8c <plural_lookup.isra.2+0x28>
   10fa4:	70a2                	c.ldsp	ra,40(sp)
   10fa6:	7402                	c.ldsp	s0,32(sp)
   10fa8:	854e                	c.mv	a0,s3
   10faa:	64e2                	c.ldsp	s1,24(sp)
   10fac:	6942                	c.ldsp	s2,16(sp)
   10fae:	69a2                	c.ldsp	s3,8(sp)
   10fb0:	6145                	c.addi16sp	sp,48
   10fb2:	8082                	c.jr	ra
   10fb4:	89be                	c.mv	s3,a5
   10fb6:	b7fd                	c.j	10fa4 <plural_lookup.isra.2+0x40>

0000000000010fb8 <_nl_find_msg>:
   10fb8:	7131                	c.addi16sp	sp,-192
   10fba:	f922                	c.sdsp	s0,176(sp)
   10fbc:	f526                	c.sdsp	s1,168(sp)
   10fbe:	0180                	c.addi4spn	s0,sp,192
   10fc0:	f4e6                	c.sdsp	s9,104(sp)
   10fc2:	fd06                	c.sdsp	ra,184(sp)
   10fc4:	f14a                	c.sdsp	s2,160(sp)
   10fc6:	ed4e                	c.sdsp	s3,152(sp)
   10fc8:	e952                	c.sdsp	s4,144(sp)
   10fca:	e556                	c.sdsp	s5,136(sp)
   10fcc:	e15a                	c.sdsp	s6,128(sp)
   10fce:	fcde                	c.sdsp	s7,120(sp)
   10fd0:	f8e2                	c.sdsp	s8,112(sp)
   10fd2:	f0ea                	c.sdsp	s10,96(sp)
   10fd4:	ecee                	c.sdsp	s11,88(sp)
   10fd6:	451c                	c.lw	a5,8(a0)
   10fd8:	f4b43023          	sd	a1,-192(s0)
   10fdc:	f4d43823          	sd	a3,-176(s0)
   10fe0:	f4e43423          	sd	a4,-184(s0)
   10fe4:	8caa                	c.mv	s9,a0
   10fe6:	84b2                	c.mv	s1,a2
   10fe8:	28f05463          	blez	a5,11270 <_nl_find_msg+0x2b8>
   10fec:	010cbd83          	ld	s11,16(s9)
   10ff0:	1e0d8663          	beqz	s11,111dc <_nl_find_msg+0x224>
   10ff4:	060db783          	ld	a5,96(s11)
   10ff8:	028da903          	lw	s2,40(s11)
   10ffc:	22078263          	beqz	a5,11220 <_nl_find_msg+0x268>
   11000:	00900533          	add	a0,zero,s1
   11004:	63d0e0ef          	jal	ra,1fe40 <strlen>
   11008:	8baa                	c.mv	s7,a0
   1100a:	8526                	c.mv	a0,s1
   1100c:	3a0030ef          	jal	ra,143ac <__hash_string>
   11010:	058daa03          	lw	s4,88(s11)
   11014:	7c05355b          	bfos	a0,a0,31,0
   11018:	ffea099b          	addiw	s3,s4,-2
   1101c:	03457d3b          	remuw	s10,a0,s4
   11020:	068dab03          	lw	s6,104(s11)
   11024:	060dba83          	ld	s5,96(s11)
   11028:	7c0bb65b          	bfos	a2,s7,31,0
   1102c:	7c0babdb          	bfoz	s7,s7,31,0
   11030:	f6c43423          	sd	a2,-152(s0)
   11034:	0335753b          	remuw	a0,a0,s3
   11038:	0015099b          	addiw	s3,a0,1
   1103c:	4149873b          	subw	a4,s3,s4
   11040:	413a0c3b          	subw	s8,s4,s3
   11044:	f6e42023          	sw	a4,-160(s0)
   11048:	15aa87db          	lea.w.ze	a5,s5,s10
   1104c:	0007a503          	lw	a0,0(a5)
   11050:	000b0663          	beqz	s6,1105c <_nl_find_msg+0xa4>
   11054:	559360ef          	jal	ra,47dac <__bswapsi2>
   11058:	7c05355b          	bfos	a0,a0,31,0
   1105c:	18050063          	beqz	a0,111dc <_nl_find_msg+0x224>
   11060:	357d                	c.addiw	a0,-1
   11062:	7c053a5b          	bfos	s4,a0,31,0
   11066:	032a7f63          	bgeu	s4,s2,110a4 <_nl_find_msg+0xec>
   1106a:	030db783          	ld	a5,48(s11)
   1106e:	018da603          	lw	a2,24(s11)
   11072:	16a787db          	lea.d.ze	a5,a5,a0
   11076:	4388                	c.lw	a0,0(a5)
   11078:	12060e63          	beqz	a2,111b4 <_nl_find_msg+0x1fc>
   1107c:	f4f43c23          	sd	a5,-168(s0)
   11080:	52d360ef          	jal	ra,47dac <__bswapsi2>
   11084:	f6843703          	ld	a4,-152(s0)
   11088:	7c05355b          	bfos	a0,a0,31,0
   1108c:	f5843783          	ld	a5,-168(s0)
   11090:	16e57a63          	bgeu	a0,a4,11204 <_nl_find_msg+0x24c>
   11094:	118d6c63          	bltu	s10,s8,111ac <_nl_find_msg+0x1f4>
   11098:	f6042683          	lw	a3,-160(s0)
   1109c:	01a68d3b          	addw	s10,a3,s10
   110a0:	fa9ff06f          	j	11048 <_nl_find_msg+0x90>
   110a4:	048db783          	ld	a5,72(s11)
   110a8:	4125053b          	subw	a0,a0,s2
   110ac:	1235255b          	bfoz	a0,a0,4,35
   110b0:	953e                	c.add	a0,a5
   110b2:	611c                	c.ld	a5,0(a0)
   110b4:	fefbf0e3          	bgeu	s7,a5,11094 <_nl_find_msg+0xdc>
   110b8:	650c                	c.ld	a1,8(a0)
   110ba:	8526                	c.mv	a0,s1
   110bc:	3350e0ef          	jal	ra,1fbf0 <strcmp>
   110c0:	fc051ae3          	bnez	a0,11094 <_nl_find_msg+0xdc>
   110c4:	7c0a29db          	bfoz	s3,s4,31,0
   110c8:	7c092d5b          	bfoz	s10,s2,31,0
   110cc:	1ba9f663          	bgeu	s3,s10,11278 <_nl_find_msg+0x2c0>
   110d0:	038db783          	ld	a5,56(s11)
   110d4:	018da703          	lw	a4,24(s11)
   110d8:	0f3787db          	lea.d	a5,a5,s3
   110dc:	000db483          	ld	s1,0(s11)
   110e0:	0047a503          	lw	a0,4(a5)
   110e4:	0007aa03          	lw	s4,0(a5)
   110e8:	1a070c63          	beqz	a4,112a0 <_nl_find_msg+0x2e8>
   110ec:	4c1360ef          	jal	ra,47dac <__bswapsi2>
   110f0:	10a484db          	lea.b.ze	s1,s1,a0
   110f4:	01400533          	add	a0,zero,s4
   110f8:	4b5360ef          	jal	ra,47dac <__bswapsi2>
   110fc:	f5043603          	ld	a2,-176(s0)
   11100:	2505                	c.addiw	a0,1
   11102:	7c052a5b          	bfoz	s4,a0,31,0
   11106:	18060763          	beqz	a2,11294 <_nl_find_msg+0x2dc>
   1110a:	0001                	c.nop
   1110c:	f4043683          	ld	a3,-192(s0)
   11110:	18068e63          	beqz	a3,112ac <_nl_find_msg+0x2f4>
   11114:	0106bb03          	ld	s6,16(a3)
   11118:	180b0a63          	beqz	s6,112ac <_nl_find_msg+0x2f4>
   1111c:	fffef797          	auipc	a5,0xfffef
   11120:	ee478793          	addi	a5,a5,-284 # 0 <_nl_current_LC_CTYPE>
   11124:	00078863          	beqz	a5,11134 <_nl_find_msg+0x17c>
   11128:	080d8513          	addi	a0,s11,128
   1112c:	00000097          	auipc	ra,0x0
   11130:	000000e7          	jalr	zero # 0 <_nl_current_LC_CTYPE>
   11134:	078dbc03          	ld	s8,120(s11)
   11138:	180c0863          	beqz	s8,112c8 <_nl_find_msg+0x310>
   1113c:	47e1                	c.li	a5,24
   1113e:	02fc07b3          	mul	a5,s8,a5
   11142:	070dbb83          	ld	s7,112(s11)
   11146:	17a1                	c.addi	a5,-24
   11148:	9bbe                	c.add	s7,a5
   1114a:	a029                	c.j	11154 <_nl_find_msg+0x19c>
   1114c:	fe8b8b93          	addi	s7,s7,-24
   11150:	160c0c63          	beqz	s8,112c8 <_nl_find_msg+0x310>
   11154:	000bb503          	ld	a0,0(s7)
   11158:	85da                	c.mv	a1,s6
   1115a:	1c7d                	c.addi	s8,-1
   1115c:	01700ab3          	add	s5,zero,s7
   11160:	2910e0ef          	jal	ra,1fbf0 <strcmp>
   11164:	f565                	c.bnez	a0,1114c <_nl_find_msg+0x194>
   11166:	fffef797          	auipc	a5,0xfffef
   1116a:	e9a78793          	addi	a5,a5,-358 # 0 <_nl_current_LC_CTYPE>
   1116e:	c799                	c.beqz	a5,1117c <_nl_find_msg+0x1c4>
   11170:	080d8513          	addi	a0,s11,128
   11174:	00000097          	auipc	ra,0x0
   11178:	000000e7          	jalr	zero # 0 <_nl_current_LC_CTYPE>
   1117c:	008ab703          	ld	a4,8(s5)
   11180:	fff00793          	li	a5,-1
   11184:	10f70863          	beq	a4,a5,11294 <_nl_find_msg+0x2dc>
   11188:	010ab783          	ld	a5,16(s5)
   1118c:	48078e63          	beqz	a5,11628 <_nl_find_msg+0x670>
   11190:	577d                	c.li	a4,-1
   11192:	48e78963          	beq	a5,a4,11624 <_nl_find_msg+0x66c>
   11196:	0f3787db          	lea.d	a5,a5,s3
   1119a:	639c                	c.ld	a5,0(a5)
   1119c:	1c078463          	beqz	a5,11364 <_nl_find_msg+0x3ac>
   111a0:	0007ba03          	ld	s4,0(a5)
   111a4:	00878493          	addi	s1,a5,8
   111a8:	0ec0006f          	j	11294 <_nl_find_msg+0x2dc>
   111ac:	013d0d3b          	addw	s10,s10,s3
   111b0:	e99ff06f          	j	11048 <_nl_find_msg+0x90>
   111b4:	f6843683          	ld	a3,-152(s0)
   111b8:	ecd56ee3          	bltu	a0,a3,11094 <_nl_find_msg+0xdc>
   111bc:	000db583          	ld	a1,0(s11)
   111c0:	0047e503          	lwu	a0,4(a5)
   111c4:	95aa                	c.add	a1,a0
   111c6:	8526                	c.mv	a0,s1
   111c8:	2290e0ef          	jal	ra,1fbf0 <strcmp>
   111cc:	ec0514e3          	bnez	a0,11094 <_nl_find_msg+0xdc>
   111d0:	ef5ff06f          	j	110c4 <_nl_find_msg+0x10c>
   111d4:	01300ab3          	add	s5,zero,s3
   111d8:	073a6063          	bltu	s4,s3,11238 <_nl_find_msg+0x280>
   111dc:	00000493          	li	s1,0
   111e0:	f4040113          	addi	sp,s0,-192
   111e4:	70ea                	c.ldsp	ra,184(sp)
   111e6:	8526                	c.mv	a0,s1
   111e8:	744a                	c.ldsp	s0,176(sp)
   111ea:	74aa                	c.ldsp	s1,168(sp)
   111ec:	790a                	c.ldsp	s2,160(sp)
   111ee:	69ea                	c.ldsp	s3,152(sp)
   111f0:	6a4a                	c.ldsp	s4,144(sp)
   111f2:	6aaa                	c.ldsp	s5,136(sp)
   111f4:	6b0a                	c.ldsp	s6,128(sp)
   111f6:	7be6                	c.ldsp	s7,120(sp)
   111f8:	7c46                	c.ldsp	s8,112(sp)
   111fa:	7ca6                	c.ldsp	s9,104(sp)
   111fc:	7d06                	c.ldsp	s10,96(sp)
   111fe:	6de6                	c.ldsp	s11,88(sp)
   11200:	6129                	c.addi16sp	sp,192
   11202:	8082                	c.jr	ra
   11204:	000db583          	ld	a1,0(s11)
   11208:	0047a503          	lw	a0,4(a5)
   1120c:	f4b43c23          	sd	a1,-168(s0)
   11210:	39d360ef          	jal	ra,47dac <__bswapsi2>
   11214:	f5843583          	ld	a1,-168(s0)
   11218:	7c05255b          	bfoz	a0,a0,31,0
   1121c:	fa9ff06f          	j	111c4 <_nl_find_msg+0x20c>
   11220:	7c092d5b          	bfoz	s10,s2,31,0
   11224:	8aea                	c.mv	s5,s10
   11226:	4a01                	c.li	s4,0
   11228:	fb5a7ae3          	bgeu	s4,s5,111dc <_nl_find_msg+0x224>
   1122c:	000dbc03          	ld	s8,0(s11)
   11230:	018dab83          	lw	s7,24(s11)
   11234:	030dbb03          	ld	s6,48(s11)
   11238:	015a09b3          	add	s3,s4,s5
   1123c:	0019d993          	srli	s3,s3,0x1
   11240:	0f3b07db          	lea.d	a5,s6,s3
   11244:	43cc                	c.lw	a1,4(a5)
   11246:	852e                	c.mv	a0,a1
   11248:	7c05a5db          	bfoz	a1,a1,31,0
   1124c:	000b8663          	beqz	s7,11258 <_nl_find_msg+0x2a0>
   11250:	35d360ef          	jal	ra,47dac <__bswapsi2>
   11254:	7c0525db          	bfoz	a1,a0,31,0
   11258:	95e2                	c.add	a1,s8
   1125a:	8526                	c.mv	a0,s1
   1125c:	1950e0ef          	jal	ra,1fbf0 <strcmp>
   11260:	f6054ae3          	bltz	a0,111d4 <_nl_find_msg+0x21c>
   11264:	e60504e3          	beqz	a0,110cc <_nl_find_msg+0x114>
   11268:	00198a13          	addi	s4,s3,1
   1126c:	fbdff06f          	j	11228 <_nl_find_msg+0x270>
   11270:	4d1000ef          	jal	ra,11f40 <_nl_load_domain>
   11274:	d79ff06f          	j	10fec <_nl_find_msg+0x34>
   11278:	41a98d33          	sub	s10,s3,s10
   1127c:	050db783          	ld	a5,80(s11)
   11280:	0d12                	c.slli	s10,0x4
   11282:	9d3e                	c.add	s10,a5
   11284:	008d3483          	ld	s1,8(s10)
   11288:	000d3a03          	ld	s4,0(s10)
   1128c:	f5043603          	ld	a2,-176(s0)
   11290:	e6061ee3          	bnez	a2,1110c <_nl_find_msg+0x154>
   11294:	f4843703          	ld	a4,-184(s0)
   11298:	01473023          	sd	s4,0(a4)
   1129c:	f45ff06f          	j	111e0 <_nl_find_msg+0x228>
   112a0:	2a05                	c.addiw	s4,1
   112a2:	10a484db          	lea.b.ze	s1,s1,a0
   112a6:	7c0a2a5b          	bfoz	s4,s4,31,0
   112aa:	b7cd                	c.j	1128c <_nl_find_msg+0x2d4>
   112ac:	a081a783          	lw	a5,-1528(gp) # 6cb18 <output_charset_cached.11189>
   112b0:	08078863          	beqz	a5,11340 <_nl_find_msg+0x388>
   112b4:	a001bb03          	ld	s6,-1536(gp) # 6cb10 <_edata>
   112b8:	e60b12e3          	bnez	s6,1111c <_nl_find_msg+0x164>
   112bc:	00023783          	ld	a5,0(tp) # 0 <_nl_current_LC_CTYPE>
   112c0:	639c                	c.ld	a5,0(a5)
   112c2:	0b07bb03          	ld	s6,176(a5)
   112c6:	bd99                	c.j	1111c <_nl_find_msg+0x164>
   112c8:	fffefc17          	auipc	s8,0xfffef
   112cc:	d38c0c13          	addi	s8,s8,-712 # 0 <_nl_current_LC_CTYPE>
   112d0:	060c1063          	bnez	s8,11330 <_nl_find_msg+0x378>
   112d4:	fffef797          	auipc	a5,0xfffef
   112d8:	d2c78793          	addi	a5,a5,-724 # 0 <_nl_current_LC_CTYPE>
   112dc:	00078863          	beqz	a5,112ec <_nl_find_msg+0x334>
   112e0:	080d8513          	addi	a0,s11,128
   112e4:	00000097          	auipc	ra,0x0
   112e8:	000000e7          	jalr	zero # 0 <_nl_current_LC_CTYPE>
   112ec:	078dbb83          	ld	s7,120(s11)
   112f0:	070db703          	ld	a4,112(s11)
   112f4:	f7743423          	sd	s7,-152(s0)
   112f8:	f6e43023          	sd	a4,-160(s0)
   112fc:	140b8463          	beqz	s7,11444 <_nl_find_msg+0x48c>
   11300:	47e1                	c.li	a5,24
   11302:	02fb87b3          	mul	a5,s7,a5
   11306:	17a1                	c.addi	a5,-24
   11308:	00f70d33          	add	s10,a4,a5
   1130c:	00c0006f          	j	11318 <_nl_find_msg+0x360>
   11310:	fe8d0d13          	addi	s10,s10,-24
   11314:	120b8863          	beqz	s7,11444 <_nl_find_msg+0x48c>
   11318:	000d3503          	ld	a0,0(s10)
   1131c:	85da                	c.mv	a1,s6
   1131e:	1bfd                	c.addi	s7,-1
   11320:	01a00ab3          	add	s5,zero,s10
   11324:	0cd0e0ef          	jal	ra,1fbf0 <strcmp>
   11328:	f565                	c.bnez	a0,11310 <_nl_find_msg+0x358>
   1132a:	e40c13e3          	bnez	s8,11170 <_nl_find_msg+0x1b8>
   1132e:	b5b9                	c.j	1117c <_nl_find_msg+0x1c4>
   11330:	080d8513          	addi	a0,s11,128
   11334:	00000097          	auipc	ra,0x0
   11338:	000000e7          	jalr	zero # 0 <_nl_current_LC_CTYPE>
   1133c:	f99ff06f          	j	112d4 <_nl_find_msg+0x31c>
   11340:	0003b517          	auipc	a0,0x3b
   11344:	4c850513          	addi	a0,a0,1224 # 4c808 <errstr.11175+0x40>
   11348:	0d5030ef          	jal	ra,14c1c <getenv>
   1134c:	8aaa                	c.mv	s5,a0
   1134e:	c509                	c.beqz	a0,11358 <_nl_find_msg+0x3a0>
   11350:	00054783          	lbu	a5,0(a0)
   11354:	32079e63          	bnez	a5,11690 <_nl_find_msg+0x6d8>
   11358:	a001bb03          	ld	s6,-1536(gp) # 6cb10 <_edata>
   1135c:	4785                	c.li	a5,1
   1135e:	a0f1a423          	sw	a5,-1528(gp) # 6cb18 <output_charset_cached.11189>
   11362:	bf99                	c.j	112b8 <_nl_find_msg+0x300>
   11364:	a2018b13          	addi	s6,gp,-1504 # 6cb30 <lock.11065>
   11368:	4705                	c.li	a4,1
   1136a:	100b27af          	lr.w	a5,(s6)
   1136e:	00079563          	bnez	a5,11378 <_nl_find_msg+0x3c0>
   11372:	1ceb262f          	sc.w.aq	a2,a4,(s6)
   11376:	fa75                	c.bnez	a2,1136a <_nl_find_msg+0x3b2>
   11378:	7c07b7db          	bfos	a5,a5,31,0
   1137c:	3a079463          	bnez	a5,11724 <_nl_find_msg+0x76c>
   11380:	6c05                	c.lui	s8,0x1
   11382:	a181b783          	ld	a5,-1512(gp) # 6cb28 <freemem.11095>
   11386:	ff0c0913          	addi	s2,s8,-16 # ff0 <catch_hook+0xf98>
   1138a:	07a1                	c.addi	a5,8
   1138c:	a101b703          	ld	a4,-1520(gp) # 6cb20 <freemem_size.11096>
   11390:	4d01                	c.li	s10,0
   11392:	1c21                	c.addi	s8,-24
   11394:	8bca                	c.mv	s7,s2
   11396:	f6943c23          	sd	s1,-136(s0)
   1139a:	f8f43023          	sd	a5,-128(s0)
   1139e:	a82d                	c.j	113d8 <_nl_find_msg+0x420>
   113a0:	03778cbb          	mulw	s9,a5,s7
   113a4:	a281bd83          	ld	s11,-1496(gp) # 6cb38 <transmem_list>
   113a8:	856e                	c.mv	a0,s11
   113aa:	7c07bd5b          	bfos	s10,a5,31,0
   113ae:	85e6                	c.mv	a1,s9
   113b0:	a191b823          	sd	s9,-1520(gp) # 6cb20 <freemem_size.11096>
   113b4:	2110d0ef          	jal	ra,1edc4 <__libc_realloc>
   113b8:	20050a63          	beqz	a0,115cc <_nl_find_msg+0x614>
   113bc:	a2a1b423          	sd	a0,-1496(gp) # 6cb38 <transmem_list>
   113c0:	ff8c8713          	addi	a4,s9,-8
   113c4:	00850793          	addi	a5,a0,8
   113c8:	a0f1bc23          	sd	a5,-1512(gp) # 6cb28 <freemem.11095>
   113cc:	01050513          	addi	a0,a0,16
   113d0:	a0e1b823          	sd	a4,-1520(gp) # 6cb20 <freemem_size.11096>
   113d4:	f8a43023          	sd	a0,-128(s0)
   113d8:	00700793          	li	a5,7
   113dc:	02e7e663          	bltu	a5,a4,11408 <_nl_find_msg+0x450>
   113e0:	001d079b          	addiw	a5,s10,1
   113e4:	fa0d1ee3          	bnez	s10,113a0 <_nl_find_msg+0x3e8>
   113e8:	01200533          	add	a0,zero,s2
   113ec:	a121b823          	sd	s2,-1520(gp) # 6cb20 <freemem_size.11096>
   113f0:	3740d0ef          	jal	ra,1e764 <__libc_malloc>
   113f4:	1e050463          	beqz	a0,115dc <_nl_find_msg+0x624>
   113f8:	a281b783          	ld	a5,-1496(gp) # 6cb38 <transmem_list>
   113fc:	a2a1b423          	sd	a0,-1496(gp) # 6cb38 <transmem_list>
   11400:	e11c                	c.sd	a5,0(a0)
   11402:	8762                	c.mv	a4,s8
   11404:	4d05                	c.li	s10,1
   11406:	bf7d                	c.j	113c4 <_nl_find_msg+0x40c>
   11408:	f8043683          	ld	a3,-128(s0)
   1140c:	f7843603          	ld	a2,-136(s0)
   11410:	1761                	c.addi	a4,-8
   11412:	008ab503          	ld	a0,8(s5)
   11416:	f8840793          	addi	a5,s0,-120
   1141a:	9736                	c.add	a4,a3
   1141c:	01460633          	add	a2,a2,s4
   11420:	f8040693          	addi	a3,s0,-128
   11424:	f7840593          	addi	a1,s0,-136
   11428:	14c130ef          	jal	ra,24574 <__gconv>
   1142c:	ffb57793          	andi	a5,a0,-5
   11430:	7c07b35b          	bfos	t1,a5,31,0
   11434:	28030063          	beqz	t1,116b4 <_nl_find_msg+0x6fc>
   11438:	2e556c5b          	bnec	a0,5,11730 <_nl_find_msg+0x778>
   1143c:	f6943c23          	sd	s1,-136(s0)
   11440:	fa1ff06f          	j	113e0 <_nl_find_msg+0x428>
   11444:	f6843703          	ld	a4,-152(s0)
   11448:	f6043503          	ld	a0,-160(s0)
   1144c:	00170b93          	addi	s7,a4,1
   11450:	47e1                	c.li	a5,24
   11452:	02fb8bb3          	mul	s7,s7,a5
   11456:	22050763          	beqz	a0,11684 <_nl_find_msg+0x6cc>
   1145a:	85de                	c.mv	a1,s7
   1145c:	1690d0ef          	jal	ra,1edc4 <__libc_realloc>
   11460:	00a00ab3          	add	s5,zero,a0
   11464:	1a0a8863          	beqz	s5,11614 <_nl_find_msg+0x65c>
   11468:	01600533          	add	a0,zero,s6
   1146c:	075db823          	sd	s5,112(s11)
   11470:	1950e0ef          	jal	ra,1fe04 <__strdup>
   11474:	8b2a                	c.mv	s6,a0
   11476:	18050f63          	beqz	a0,11614 <_nl_find_msg+0x65c>
   1147a:	1ba1                	c.addi	s7,-24
   1147c:	f4043583          	ld	a1,-192(s0)
   11480:	9ade                	c.add	s5,s7
   11482:	f8840713          	addi	a4,s0,-120
   11486:	5bfd                	c.li	s7,-1
   11488:	4681                	c.li	a3,0
   1148a:	0004b617          	auipc	a2,0x4b
   1148e:	11e60613          	addi	a2,a2,286 # 5c5a8 <step3b_jumps.12768+0x1e0>
   11492:	8566                	c.mv	a0,s9
   11494:	016ab023          	sd	s6,0(s5)
   11498:	017ab423          	sd	s7,8(s5)
   1149c:	b1dff0ef          	jal	ra,10fb8 <_nl_find_msg>
   114a0:	00a007b3          	add	a5,zero,a0
   114a4:	2f750663          	beq	a0,s7,11790 <_nl_find_msg+0x7d8>
   114a8:	10050863          	beqz	a0,115b8 <_nl_find_msg+0x600>
   114ac:	0003b597          	auipc	a1,0x3b
   114b0:	36c58593          	addi	a1,a1,876 # 4c818 <errstr.11175+0x50>
   114b4:	7450e0ef          	jal	ra,203f8 <strstr>
   114b8:	10050063          	beqz	a0,115b8 <_nl_find_msg+0x600>
   114bc:	00850c93          	addi	s9,a0,8
   114c0:	0003b597          	auipc	a1,0x3b
   114c4:	36858593          	addi	a1,a1,872 # 4c828 <errstr.11175+0x60>
   114c8:	01900533          	add	a0,zero,s9
   114cc:	0310e0ef          	jal	ra,1fcfc <strcspn>
   114d0:	01f50793          	addi	a5,a0,31
   114d4:	9bc1                	c.andi	a5,-16
   114d6:	40f10133          	sub	sp,sp,a5
   114da:	8b8a                	c.mv	s7,sp
   114dc:	862a                	c.mv	a2,a0
   114de:	85e6                	c.mv	a1,s9
   114e0:	01700533          	add	a0,zero,s7
   114e4:	7540f0ef          	jal	ra,20c38 <__mempcpy>
   114e8:	875a                	c.mv	a4,s6
   114ea:	00050023          	sb	zero,0(a0)
   114ee:	4601                	c.li	a2,0
   114f0:	0080006f          	j	114f8 <_nl_find_msg+0x540>
   114f4:	0705                	c.addi	a4,1
   114f6:	963e                	c.add	a2,a5
   114f8:	00074683          	lbu	a3,0(a4)
   114fc:	fd168793          	addi	a5,a3,-47
   11500:	0017b793          	seqz	a5,a5
   11504:	fae5                	c.bnez	a3,114f4 <_nl_find_msg+0x53c>
   11506:	41670733          	sub	a4,a4,s6
   1150a:	02970713          	addi	a4,a4,41
   1150e:	9b41                	c.andi	a4,-16
   11510:	000b4783          	lbu	a5,0(s6)
   11514:	40e10133          	sub	sp,sp,a4
   11518:	850a                	c.mv	a0,sp
   1151a:	28078163          	beqz	a5,1179c <_nl_find_msg+0x7e4>
   1151e:	0004b897          	auipc	a7,0x4b
   11522:	83a8b883          	ld	a7,-1990(a7) # 5bd58 <_nl_C_locobj+0x78>
   11526:	86da                	c.mv	a3,s6
   11528:	00a00733          	add	a4,zero,a0
   1152c:	0cf887db          	lea.w	a5,a7,a5
   11530:	438c                	c.lw	a1,0(a5)
   11532:	0685                	c.addi	a3,1
   11534:	0705                	c.addi	a4,1
   11536:	0006c783          	lbu	a5,0(a3)
   1153a:	feb70fa3          	sb	a1,-1(a4)
   1153e:	f7fd                	c.bnez	a5,1152c <_nl_find_msg+0x574>
   11540:	00100793          	li	a5,1
   11544:	20c7fc63          	bgeu	a5,a2,1175c <_nl_find_msg+0x7a4>
   11548:	00070023          	sb	zero,0(a4)
   1154c:	4601                	c.li	a2,0
   1154e:	875e                	c.mv	a4,s7
   11550:	0080006f          	j	11558 <_nl_find_msg+0x5a0>
   11554:	0705                	c.addi	a4,1
   11556:	963e                	c.add	a2,a5
   11558:	00074683          	lbu	a3,0(a4)
   1155c:	fd168793          	addi	a5,a3,-47
   11560:	0017b793          	seqz	a5,a5
   11564:	fae5                	c.bnez	a3,11554 <_nl_find_msg+0x59c>
   11566:	41770733          	sub	a4,a4,s7
   1156a:	02170713          	addi	a4,a4,33
   1156e:	9b41                	c.andi	a4,-16
   11570:	000bc783          	lbu	a5,0(s7)
   11574:	40e10133          	sub	sp,sp,a4
   11578:	858a                	c.mv	a1,sp
   1157a:	22078363          	beqz	a5,117a0 <_nl_find_msg+0x7e8>
   1157e:	0004a897          	auipc	a7,0x4a
   11582:	7da8b883          	ld	a7,2010(a7) # 5bd58 <_nl_C_locobj+0x78>
   11586:	872e                	c.mv	a4,a1
   11588:	0cf887db          	lea.w	a5,a7,a5
   1158c:	4394                	c.lw	a3,0(a5)
   1158e:	0b85                	c.addi	s7,1
   11590:	0705                	c.addi	a4,1
   11592:	000bc783          	lbu	a5,0(s7)
   11596:	fed70fa3          	sb	a3,-1(a4)
   1159a:	f7fd                	c.bnez	a5,11588 <_nl_find_msg+0x5d0>
   1159c:	00100793          	li	a5,1
   115a0:	1ac7f663          	bgeu	a5,a2,1174c <_nl_find_msg+0x794>
   115a4:	00100693          	li	a3,1
   115a8:	008a8613          	addi	a2,s5,8
   115ac:	00070023          	sb	zero,0(a4)
   115b0:	465120ef          	jal	ra,24214 <__gconv_open>
   115b4:	1a051c63          	bnez	a0,1176c <_nl_find_msg+0x7b4>
   115b8:	078db783          	ld	a5,120(s11)
   115bc:	000ab823          	sd	zero,16(s5)
   115c0:	0785                	c.addi	a5,1
   115c2:	06fdbc23          	sd	a5,120(s11)
   115c6:	ba0c15e3          	bnez	s8,11170 <_nl_find_msg+0x1b8>
   115ca:	be4d                	c.j	1117c <_nl_find_msg+0x1c4>
   115cc:	000db783          	ld	a5,0(s11)
   115d0:	01b00533          	add	a0,zero,s11
   115d4:	a2f1b423          	sd	a5,-1496(gp) # 6cb38 <transmem_list>
   115d8:	65c0d0ef          	jal	ra,1ec34 <__free>
   115dc:	a001bc23          	sd	zero,-1512(gp) # 6cb28 <freemem.11095>
   115e0:	4781                	c.li	a5,0
   115e2:	a001b823          	sd	zero,-1520(gp) # 6cb20 <freemem_size.11096>
   115e6:	873e                	c.mv	a4,a5
   115e8:	0f50000f          	fence	iorw,ow
   115ec:	08eb272f          	amoswap.w	a4,a4,(s6)
   115f0:	7c0737db          	bfos	a5,a4,31,0
   115f4:	4705                	c.li	a4,1
   115f6:	54fd                	c.li	s1,-1
   115f8:	bef754e3          	bge	a4,a5,111e0 <_nl_find_msg+0x228>
   115fc:	06200893          	li	a7,98
   11600:	a2018513          	addi	a0,gp,-1504 # 6cb30 <lock.11065>
   11604:	08100593          	li	a1,129
   11608:	4605                	c.li	a2,1
   1160a:	4681                	c.li	a3,0
   1160c:	00000073          	ecall
   11610:	bd1ff06f          	j	111e0 <_nl_find_msg+0x228>
   11614:	000c0863          	beqz	s8,11624 <_nl_find_msg+0x66c>
   11618:	080d8513          	addi	a0,s11,128
   1161c:	00000097          	auipc	ra,0x0
   11620:	000000e7          	jalr	zero # 0 <_nl_current_LC_CTYPE>
   11624:	54fd                	c.li	s1,-1
   11626:	be6d                	c.j	111e0 <_nl_find_msg+0x228>
   11628:	a2018b13          	addi	s6,gp,-1504 # 6cb30 <lock.11065>
   1162c:	4705                	c.li	a4,1
   1162e:	100b27af          	lr.w	a5,(s6)
   11632:	00079563          	bnez	a5,1163c <_nl_find_msg+0x684>
   11636:	1ceb262f          	sc.w.aq	a2,a4,(s6)
   1163a:	fa75                	c.bnez	a2,1162e <_nl_find_msg+0x676>
   1163c:	7c07b7db          	bfos	a5,a5,31,0
   11640:	16079c63          	bnez	a5,117b8 <_nl_find_msg+0x800>
   11644:	010ab783          	ld	a5,16(s5)
   11648:	0c078063          	beqz	a5,11708 <_nl_find_msg+0x750>
   1164c:	4781                	c.li	a5,0
   1164e:	863e                	c.mv	a2,a5
   11650:	0f50000f          	fence	iorw,ow
   11654:	08cb262f          	amoswap.w	a2,a2,(s6)
   11658:	7c0637db          	bfos	a5,a2,31,0
   1165c:	4705                	c.li	a4,1
   1165e:	00f74563          	blt	a4,a5,11668 <_nl_find_msg+0x6b0>
   11662:	010ab783          	ld	a5,16(s5)
   11666:	b62d                	c.j	11190 <_nl_find_msg+0x1d8>
   11668:	06200893          	li	a7,98
   1166c:	a2018513          	addi	a0,gp,-1504 # 6cb30 <lock.11065>
   11670:	08100593          	li	a1,129
   11674:	4605                	c.li	a2,1
   11676:	4681                	c.li	a3,0
   11678:	00000073          	ecall
   1167c:	010ab783          	ld	a5,16(s5)
   11680:	b11ff06f          	j	11190 <_nl_find_msg+0x1d8>
   11684:	01700533          	add	a0,zero,s7
   11688:	0dc0d0ef          	jal	ra,1e764 <__libc_malloc>
   1168c:	8aaa                	c.mv	s5,a0
   1168e:	bbd9                	c.j	11464 <_nl_find_msg+0x4ac>
   11690:	7b00e0ef          	jal	ra,1fe40 <strlen>
   11694:	00150b93          	addi	s7,a0,1
   11698:	01700533          	add	a0,zero,s7
   1169c:	0c80d0ef          	jal	ra,1e764 <__libc_malloc>
   116a0:	8b2a                	c.mv	s6,a0
   116a2:	c509                	c.beqz	a0,116ac <_nl_find_msg+0x6f4>
   116a4:	865e                	c.mv	a2,s7
   116a6:	85d6                	c.mv	a1,s5
   116a8:	60c0f0ef          	jal	ra,20cb4 <memcpy>
   116ac:	a161b023          	sd	s6,-1536(gp) # 6cb10 <_edata>
   116b0:	cadff06f          	j	1135c <_nl_find_msg+0x3a4>
   116b4:	f8043683          	ld	a3,-128(s0)
   116b8:	a181b503          	ld	a0,-1512(gp) # 6cb28 <freemem.11095>
   116bc:	40a68633          	sub	a2,a3,a0
   116c0:	a101b703          	ld	a4,-1520(gp) # 6cb20 <freemem_size.11096>
   116c4:	010ab583          	ld	a1,16(s5)
   116c8:	8f11                	c.sub	a4,a2
   116ca:	00777813          	andi	a6,a4,7
   116ce:	1661                	c.addi	a2,-8
   116d0:	098e                	c.slli	s3,0x3
   116d2:	e110                	c.sd	a2,0(a0)
   116d4:	96c2                	c.add	a3,a6
   116d6:	01358633          	add	a2,a1,s3
   116da:	9b61                	c.andi	a4,-8
   116dc:	e208                	c.sd	a0,0(a2)
   116de:	879a                	c.mv	a5,t1
   116e0:	a0d1bc23          	sd	a3,-1512(gp) # 6cb28 <freemem.11095>
   116e4:	a0e1b823          	sd	a4,-1520(gp) # 6cb20 <freemem_size.11096>
   116e8:	0f50000f          	fence	iorw,ow
   116ec:	08fb27af          	amoswap.w	a5,a5,(s6)
   116f0:	7c07b7db          	bfos	a5,a5,31,0
   116f4:	00100713          	li	a4,1
   116f8:	0cf74a63          	blt	a4,a5,117cc <_nl_find_msg+0x814>
   116fc:	010ab783          	ld	a5,16(s5)
   11700:	97ce                	c.add	a5,s3
   11702:	639c                	c.ld	a5,0(a5)
   11704:	a9dff06f          	j	111a0 <_nl_find_msg+0x1e8>
   11708:	040da503          	lw	a0,64(s11)
   1170c:	00800593          	li	a1,8
   11710:	0125053b          	addw	a0,a0,s2
   11714:	7c05255b          	bfoz	a0,a0,31,0
   11718:	1e10d0ef          	jal	ra,1f0f8 <__calloc>
   1171c:	c545                	c.beqz	a0,117c4 <_nl_find_msg+0x80c>
   1171e:	00aab823          	sd	a0,16(s5)
   11722:	b9b9                	c.j	11380 <_nl_find_msg+0x3c8>
   11724:	01600533          	add	a0,zero,s6
   11728:	255110ef          	jal	ra,2317c <__lll_lock_wait_private>
   1172c:	c55ff06f          	j	11380 <_nl_find_msg+0x3c8>
   11730:	4781                	c.li	a5,0
   11732:	863e                	c.mv	a2,a5
   11734:	0f50000f          	fence	iorw,ow
   11738:	08cb262f          	amoswap.w	a2,a2,(s6)
   1173c:	7c0637db          	bfos	a5,a2,31,0
   11740:	4705                	c.li	a4,1
   11742:	4481                	c.li	s1,0
   11744:	a8f75ee3          	bge	a4,a5,111e0 <_nl_find_msg+0x228>
   11748:	eb5ff06f          	j	115fc <_nl_find_msg+0x644>
   1174c:	02f00793          	li	a5,47
   11750:	00f70023          	sb	a5,0(a4)
   11754:	c221                	c.beqz	a2,11794 <_nl_find_msg+0x7dc>
   11756:	0705                	c.addi	a4,1
   11758:	e4dff06f          	j	115a4 <_nl_find_msg+0x5ec>
   1175c:	02f00793          	li	a5,47
   11760:	00f70023          	sb	a5,0(a4)
   11764:	c221                	c.beqz	a2,117a4 <_nl_find_msg+0x7ec>
   11766:	0705                	c.addi	a4,1
   11768:	de1ff06f          	j	11548 <_nl_find_msg+0x590>
   1176c:	fff00793          	li	a5,-1
   11770:	06f50a63          	beq	a0,a5,117e4 <_nl_find_msg+0x82c>
   11774:	000c0863          	beqz	s8,11784 <_nl_find_msg+0x7cc>
   11778:	080d8513          	addi	a0,s11,128
   1177c:	00000097          	auipc	ra,0x0
   11780:	000000e7          	jalr	zero # 0 <_nl_current_LC_CTYPE>
   11784:	01600533          	add	a0,zero,s6
   11788:	4ac0d0ef          	jal	ra,1ec34 <__free>
   1178c:	00000793          	li	a5,0
   11790:	84be                	c.mv	s1,a5
   11792:	b4b9                	c.j	111e0 <_nl_find_msg+0x228>
   11794:	00f700a3          	sb	a5,1(a4)
   11798:	0709                	c.addi	a4,2
   1179a:	b529                	c.j	115a4 <_nl_find_msg+0x5ec>
   1179c:	872a                	c.mv	a4,a0
   1179e:	b34d                	c.j	11540 <_nl_find_msg+0x588>
   117a0:	872e                	c.mv	a4,a1
   117a2:	bbed                	c.j	1159c <_nl_find_msg+0x5e4>
   117a4:	00f700a3          	sb	a5,1(a4)
   117a8:	0003d797          	auipc	a5,0x3d
   117ac:	ca87b783          	ld	a5,-856(a5) # 4e450 <to_wc+0x78>
   117b0:	00f73123          	sd	a5,2(a4)
   117b4:	0729                	c.addi	a4,10
   117b6:	bb49                	c.j	11548 <_nl_find_msg+0x590>
   117b8:	01600533          	add	a0,zero,s6
   117bc:	1c1110ef          	jal	ra,2317c <__lll_lock_wait_private>
   117c0:	e85ff06f          	j	11644 <_nl_find_msg+0x68c>
   117c4:	57fd                	c.li	a5,-1
   117c6:	00fab823          	sd	a5,16(s5)
   117ca:	b549                	c.j	1164c <_nl_find_msg+0x694>
   117cc:	06200893          	li	a7,98
   117d0:	a2018513          	addi	a0,gp,-1504 # 6cb30 <lock.11065>
   117d4:	08100593          	li	a1,129
   117d8:	4605                	c.li	a2,1
   117da:	4681                	c.li	a3,0
   117dc:	00000073          	ecall
   117e0:	f1dff06f          	j	116fc <_nl_find_msg+0x744>
   117e4:	00aab423          	sd	a0,8(s5)
   117e8:	dd1ff06f          	j	115b8 <_nl_find_msg+0x600>

00000000000117ec <__dcigettext>:
   117ec:	7111                	c.addi16sp	sp,-256
   117ee:	f9a2                	c.sdsp	s0,240(sp)
   117f0:	fd86                	c.sdsp	ra,248(sp)
   117f2:	0200                	c.addi4spn	s0,sp,256
   117f4:	f5a6                	c.sdsp	s1,232(sp)
   117f6:	f1ca                	c.sdsp	s2,224(sp)
   117f8:	edce                	c.sdsp	s3,216(sp)
   117fa:	e9d2                	c.sdsp	s4,208(sp)
   117fc:	e5d6                	c.sdsp	s5,200(sp)
   117fe:	e1da                	c.sdsp	s6,192(sp)
   11800:	fd5e                	c.sdsp	s7,184(sp)
   11802:	f962                	c.sdsp	s8,176(sp)
   11804:	f566                	c.sdsp	s9,168(sp)
   11806:	f16a                	c.sdsp	s10,160(sp)
   11808:	ed6e                	c.sdsp	s11,152(sp)
   1180a:	f4043023          	sd	zero,-192(s0)
   1180e:	f2c43c23          	sd	a2,-200(s0)
   11812:	44058d63          	beqz	a1,11c6c <__dcigettext+0x480>
   11816:	8abe                	c.mv	s5,a5
   11818:	47b1                	c.li	a5,12
   1181a:	89ae                	c.mv	s3,a1
   1181c:	8b36                	c.mv	s6,a3
   1181e:	8cba                	c.mv	s9,a4
   11820:	2357ee63          	bltu	a5,s5,11a5c <__dcigettext+0x270>
   11824:	226adc5b          	beqc	s5,6,11a5c <__dcigettext+0x270>
   11828:	02022603          	lw	a2,32(tp) # 20 <__libc_errno>
   1182c:	fffee497          	auipc	s1,0xfffee
   11830:	7d448493          	addi	s1,s1,2004 # 0 <_nl_current_LC_CTYPE>
   11834:	f0c43c23          	sd	a2,-232(s0)
   11838:	00a00a33          	add	s4,zero,a0
   1183c:	2e048063          	beqz	s1,11b1c <__dcigettext+0x330>
   11840:	5d018513          	addi	a0,gp,1488 # 6d6e0 <__libc_setlocale_lock>
   11844:	00000097          	auipc	ra,0x0
   11848:	000000e7          	jalr	zero # 0 <_nl_current_LC_CTYPE>
   1184c:	0b818513          	addi	a0,gp,184 # 6d1c8 <_nl_state_lock>
   11850:	00000097          	auipc	ra,0x0
   11854:	000000e7          	jalr	zero # 0 <_nl_current_LC_CTYPE>
   11858:	380a0663          	beqz	s4,11be4 <__dcigettext+0x3f8>
   1185c:	01500533          	add	a0,zero,s5
   11860:	f6043823          	sd	zero,-144(s0)
   11864:	f9343423          	sd	s3,-120(s0)
   11868:	f5443823          	sd	s4,-176(s0)
   1186c:	f5542c23          	sw	s5,-168(s0)
   11870:	525180ef          	jal	ra,2a594 <__current_locale_name>
   11874:	f0a43423          	sd	a0,-248(s0)
   11878:	f6a43023          	sd	a0,-160(s0)
   1187c:	0f018513          	addi	a0,gp,240 # 6d200 <tree_lock>
   11880:	00000097          	auipc	ra,0x0
   11884:	000000e7          	jalr	zero # 0 <_nl_current_LC_CTYPE>
   11888:	fffff617          	auipc	a2,0xfffff
   1188c:	68860613          	addi	a2,a2,1672 # 10f10 <transcmp>
   11890:	a3018593          	addi	a1,gp,-1488 # 6cb40 <root>
   11894:	f5040513          	addi	a0,s0,-176
   11898:	6f9100ef          	jal	ra,22790 <__tfind>
   1189c:	fffee497          	auipc	s1,0xfffee
   118a0:	76448493          	addi	s1,s1,1892 # 0 <_nl_current_LC_CTYPE>
   118a4:	f2a43023          	sd	a0,-224(s0)
   118a8:	00048863          	beqz	s1,118b8 <__dcigettext+0xcc>
   118ac:	0f018513          	addi	a0,gp,240 # 6d200 <tree_lock>
   118b0:	00000097          	auipc	ra,0x0
   118b4:	000000e7          	jalr	zero # 0 <_nl_current_LC_CTYPE>
   118b8:	f2043683          	ld	a3,-224(s0)
   118bc:	ca91                	c.beqz	a3,118d0 <__dcigettext+0xe4>
   118be:	6298                	c.ld	a4,0(a3)
   118c0:	0005c797          	auipc	a5,0x5c
   118c4:	5987a783          	lw	a5,1432(a5) # 6de58 <_nl_msg_cat_cntr>
   118c8:	01872683          	lw	a3,24(a4)
   118cc:	34f68263          	beq	a3,a5,11c10 <__dcigettext+0x424>
   118d0:	0005c497          	auipc	s1,0x5c
   118d4:	5804b483          	ld	s1,1408(s1) # 6de50 <_nl_domain_bindings>
   118d8:	e881                	c.bnez	s1,118e8 <__dcigettext+0xfc>
   118da:	a46d                	c.j	11b84 <__dcigettext+0x398>
   118dc:	2a054263          	bltz	a0,11b80 <__dcigettext+0x394>
   118e0:	0004b483          	ld	s1,0(s1)
   118e4:	2a048063          	beqz	s1,11b84 <__dcigettext+0x398>
   118e8:	01848593          	addi	a1,s1,24
   118ec:	01400533          	add	a0,zero,s4
   118f0:	3000e0ef          	jal	ra,1fbf0 <strcmp>
   118f4:	f565                	c.bnez	a0,118dc <__dcigettext+0xf0>
   118f6:	0084bb83          	ld	s7,8(s1)
   118fa:	000bc783          	lbu	a5,0(s7)
   118fe:	02f7dbdb          	beqc	a5,47,11934 <__dcigettext+0x148>
   11902:	4581                	c.li	a1,0
   11904:	45c100ef          	jal	ra,21d60 <__getcwd>
   11908:	892a                	c.mv	s2,a0
   1190a:	10050f63          	beqz	a0,11a28 <__dcigettext+0x23c>
   1190e:	86de                	c.mv	a3,s7
   11910:	00a00633          	add	a2,zero,a0
   11914:	0003b597          	auipc	a1,0x3b
   11918:	f1c58593          	addi	a1,a1,-228 # 4c830 <errstr.11175+0x68>
   1191c:	f4040513          	addi	a0,s0,-192
   11920:	060040ef          	jal	ra,15980 <___asprintf>
   11924:	8baa                	c.mv	s7,a0
   11926:	854a                	c.mv	a0,s2
   11928:	30c0d0ef          	jal	ra,1ec34 <__free>
   1192c:	340bc063          	bltz	s7,11c6c <__dcigettext+0x480>
   11930:	f4043b83          	ld	s7,-192(s0)
   11934:	0003e797          	auipc	a5,0x3e
   11938:	66478793          	addi	a5,a5,1636 # 4ff98 <_nl_category_name_idxs>
   1193c:	97d6                	c.add	a5,s5
   1193e:	0007c783          	lbu	a5,0(a5)
   11942:	8556                	c.mv	a0,s5
   11944:	0003e917          	auipc	s2,0x3e
   11948:	66490913          	addi	s2,s2,1636 # 4ffa8 <_nl_category_names>
   1194c:	00f90933          	add	s2,s2,a5
   11950:	445180ef          	jal	ra,2a594 <__current_locale_name>
   11954:	0003b597          	auipc	a1,0x3b
   11958:	ee458593          	addi	a1,a1,-284 # 4c838 <errstr.11175+0x70>
   1195c:	00a00d33          	add	s10,zero,a0
   11960:	2900e0ef          	jal	ra,1fbf0 <strcmp>
   11964:	2e051663          	bnez	a0,11c50 <__dcigettext+0x464>
   11968:	01400533          	add	a0,zero,s4
   1196c:	4d40e0ef          	jal	ra,1fe40 <strlen>
   11970:	8daa                	c.mv	s11,a0
   11972:	f0a43023          	sd	a0,-256(s0)
   11976:	854a                	c.mv	a0,s2
   11978:	4c80e0ef          	jal	ra,1fe40 <strlen>
   1197c:	01b507b3          	add	a5,a0,s11
   11980:	02378793          	addi	a5,a5,35
   11984:	9bc1                	c.andi	a5,-16
   11986:	40f10133          	sub	sp,sp,a5
   1198a:	8c0a                	c.mv	s8,sp
   1198c:	85ca                	c.mv	a1,s2
   1198e:	8562                	c.mv	a0,s8
   11990:	2c00f0ef          	jal	ra,20c50 <__stpcpy>
   11994:	02f00713          	li	a4,47
   11998:	87aa                	c.mv	a5,a0
   1199a:	866e                	c.mv	a2,s11
   1199c:	85d2                	c.mv	a1,s4
   1199e:	0505                	c.addi	a0,1
   119a0:	00e79023          	sh	a4,0(a5)
   119a4:	2940f0ef          	jal	ra,20c38 <__mempcpy>
   119a8:	006f77b7          	lui	a5,0x6f7
   119ac:	d2e7879b          	addiw	a5,a5,-722
   119b0:	c11c                	c.sw	a5,0(a0)
   119b2:	856a                	c.mv	a0,s10
   119b4:	48c0e0ef          	jal	ra,1fe40 <strlen>
   119b8:	057d                	c.addi	a0,31
   119ba:	9941                	c.andi	a0,-16
   119bc:	40a10133          	sub	sp,sp,a0
   119c0:	00200933          	add	s2,zero,sp
   119c4:	000d4783          	lbu	a5,0(s10)
   119c8:	17a7dcdb          	beqc	a5,58,11b40 <__dcigettext+0x354>
   119cc:	16079c63          	bnez	a5,11b44 <__dcigettext+0x358>
   119d0:	04300693          	li	a3,67
   119d4:	00d91023          	sh	a3,0(s2)
   119d8:	0003b597          	auipc	a1,0x3b
   119dc:	e6058593          	addi	a1,a1,-416 # 4c838 <errstr.11175+0x70>
   119e0:	01200533          	add	a0,zero,s2
   119e4:	20c0e0ef          	jal	ra,1fbf0 <strcmp>
   119e8:	c121                	c.beqz	a0,11a28 <__dcigettext+0x23c>
   119ea:	0003b597          	auipc	a1,0x3b
   119ee:	e6658593          	addi	a1,a1,-410 # 4c850 <errstr.11175+0x88>
   119f2:	854a                	c.mv	a0,s2
   119f4:	1fc0e0ef          	jal	ra,1fbf0 <strcmp>
   119f8:	c905                	c.beqz	a0,11a28 <__dcigettext+0x23c>
   119fa:	86a6                	c.mv	a3,s1
   119fc:	8662                	c.mv	a2,s8
   119fe:	85ca                	c.mv	a1,s2
   11a00:	01700533          	add	a0,zero,s7
   11a04:	378000ef          	jal	ra,11d7c <_nl_find_domain>
   11a08:	8daa                	c.mv	s11,a0
   11a0a:	dd4d                	c.beqz	a0,119c4 <__dcigettext+0x1d8>
   11a0c:	f4840713          	addi	a4,s0,-184
   11a10:	4685                	c.li	a3,1
   11a12:	864e                	c.mv	a2,s3
   11a14:	009005b3          	add	a1,zero,s1
   11a18:	da0ff0ef          	jal	ra,10fb8 <_nl_find_msg>
   11a1c:	87aa                	c.mv	a5,a0
   11a1e:	16050963          	beqz	a0,11b90 <__dcigettext+0x3a4>
   11a22:	577d                	c.li	a4,-1
   11a24:	06e51a63          	bne	a0,a4,11a98 <__dcigettext+0x2ac>
   11a28:	f4043503          	ld	a0,-192(s0)
   11a2c:	2080d0ef          	jal	ra,1ec34 <__free>
   11a30:	fffee617          	auipc	a2,0xfffee
   11a34:	5d060613          	addi	a2,a2,1488 # 0 <_nl_current_LC_CTYPE>
   11a38:	00060e63          	beqz	a2,11a54 <__dcigettext+0x268>
   11a3c:	0b818513          	addi	a0,gp,184 # 6d1c8 <_nl_state_lock>
   11a40:	00000097          	auipc	ra,0x0
   11a44:	000000e7          	jalr	zero # 0 <_nl_current_LC_CTYPE>
   11a48:	5d018513          	addi	a0,gp,1488 # 6d6e0 <__libc_setlocale_lock>
   11a4c:	00000097          	auipc	ra,0x0
   11a50:	000000e7          	jalr	zero # 0 <_nl_current_LC_CTYPE>
   11a54:	f1843603          	ld	a2,-232(s0)
   11a58:	02c22023          	sw	a2,32(tp) # 20 <__libc_errno>
   11a5c:	000b0463          	beqz	s6,11a64 <__dcigettext+0x278>
   11a60:	0a1cea5b          	bnec	s9,1,11b14 <__dcigettext+0x328>
   11a64:	013007b3          	add	a5,zero,s3
   11a68:	f0040113          	addi	sp,s0,-256
   11a6c:	70ee                	c.ldsp	ra,248(sp)
   11a6e:	853e                	c.mv	a0,a5
   11a70:	744e                	c.ldsp	s0,240(sp)
   11a72:	74ae                	c.ldsp	s1,232(sp)
   11a74:	790e                	c.ldsp	s2,224(sp)
   11a76:	69ee                	c.ldsp	s3,216(sp)
   11a78:	6a4e                	c.ldsp	s4,208(sp)
   11a7a:	6aae                	c.ldsp	s5,200(sp)
   11a7c:	6b0e                	c.ldsp	s6,192(sp)
   11a7e:	7bea                	c.ldsp	s7,184(sp)
   11a80:	7c4a                	c.ldsp	s8,176(sp)
   11a82:	7caa                	c.ldsp	s9,168(sp)
   11a84:	7d0a                	c.ldsp	s10,160(sp)
   11a86:	6dea                	c.ldsp	s11,152(sp)
   11a88:	6111                	c.addi16sp	sp,256
   11a8a:	8082                	c.jr	ra
   11a8c:	f3043483          	ld	s1,-208(s0)
   11a90:	0e9d88db          	lea.d	a7,s11,s1
   11a94:	0208bd83          	ld	s11,32(a7)
   11a98:	f4043503          	ld	a0,-192(s0)
   11a9c:	f2f43c23          	sd	a5,-200(s0)
   11aa0:	1940d0ef          	jal	ra,1ec34 <__free>
   11aa4:	f2043583          	ld	a1,-224(s0)
   11aa8:	f3843783          	ld	a5,-200(s0)
   11aac:	1c058c63          	beqz	a1,11c84 <__dcigettext+0x498>
   11ab0:	f2043583          	ld	a1,-224(s0)
   11ab4:	0005c697          	auipc	a3,0x5c
   11ab8:	3a46a683          	lw	a3,932(a3) # 6de58 <_nl_msg_cat_cntr>
   11abc:	6198                	c.ld	a4,0(a1)
   11abe:	cf14                	c.sw	a3,24(a4)
   11ac0:	f4843683          	ld	a3,-184(s0)
   11ac4:	03b73023          	sd	s11,32(a4)
   11ac8:	f71c                	c.sd	a5,40(a4)
   11aca:	fb14                	c.sd	a3,48(a4)
   11acc:	f1843583          	ld	a1,-232(s0)
   11ad0:	02b22023          	sw	a1,32(tp) # 20 <__libc_errno>
   11ad4:	000b0c63          	beqz	s6,11aec <__dcigettext+0x300>
   11ad8:	f4843683          	ld	a3,-184(s0)
   11adc:	010db503          	ld	a0,16(s11)
   11ae0:	863e                	c.mv	a2,a5
   11ae2:	85e6                	c.mv	a1,s9
   11ae4:	c80ff0ef          	jal	ra,10f64 <plural_lookup.isra.2>
   11ae8:	00a007b3          	add	a5,zero,a0
   11aec:	fffee497          	auipc	s1,0xfffee
   11af0:	51448493          	addi	s1,s1,1300 # 0 <_nl_current_LC_CTYPE>
   11af4:	f6048ae3          	beqz	s1,11a68 <__dcigettext+0x27c>
   11af8:	0b818513          	addi	a0,gp,184 # 6d1c8 <_nl_state_lock>
   11afc:	f2f43c23          	sd	a5,-200(s0)
   11b00:	00000097          	auipc	ra,0x0
   11b04:	000000e7          	jalr	zero # 0 <_nl_current_LC_CTYPE>
   11b08:	5d018513          	addi	a0,gp,1488 # 6d6e0 <__libc_setlocale_lock>
   11b0c:	00000097          	auipc	ra,0x0
   11b10:	000000e7          	jalr	zero # 0 <_nl_current_LC_CTYPE>
   11b14:	f3843783          	ld	a5,-200(s0)
   11b18:	f51ff06f          	j	11a68 <__dcigettext+0x27c>
   11b1c:	c561                	c.beqz	a0,11be4 <__dcigettext+0x3f8>
   11b1e:	8556                	c.mv	a0,s5
   11b20:	f6043823          	sd	zero,-144(s0)
   11b24:	f8b43423          	sd	a1,-120(s0)
   11b28:	f5443823          	sd	s4,-176(s0)
   11b2c:	f5542c23          	sw	s5,-168(s0)
   11b30:	265180ef          	jal	ra,2a594 <__current_locale_name>
   11b34:	f0a43423          	sd	a0,-248(s0)
   11b38:	f6a43023          	sd	a0,-160(s0)
   11b3c:	d4dff06f          	j	11888 <__dcigettext+0x9c>
   11b40:	0d05                	c.addi	s10,1
   11b42:	b549                	c.j	119c4 <__dcigettext+0x1d8>
   11b44:	874a                	c.mv	a4,s2
   11b46:	a019                	c.j	11b4c <__dcigettext+0x360>
   11b48:	01a7dadb          	beqc	a5,58,11b5c <__dcigettext+0x370>
   11b4c:	0d05                	c.addi	s10,1
   11b4e:	0705                	c.addi	a4,1
   11b50:	fef70fa3          	sb	a5,-1(a4)
   11b54:	000d4783          	lbu	a5,0(s10)
   11b58:	fe0798e3          	bnez	a5,11b48 <__dcigettext+0x35c>
   11b5c:	00070023          	sb	zero,0(a4)
   11b60:	00059797          	auipc	a5,0x59
   11b64:	4587a783          	lw	a5,1112(a5) # 6afb8 <__libc_enable_secure>
   11b68:	e60788e3          	beqz	a5,119d8 <__dcigettext+0x1ec>
   11b6c:	02f00593          	li	a1,47
   11b70:	01200533          	add	a0,zero,s2
   11b74:	78d0d0ef          	jal	ra,1fb00 <strchr>
   11b78:	e40516e3          	bnez	a0,119c4 <__dcigettext+0x1d8>
   11b7c:	e5dff06f          	j	119d8 <__dcigettext+0x1ec>
   11b80:	00000493          	li	s1,0
   11b84:	0003bb97          	auipc	s7,0x3b
   11b88:	cd4b8b93          	addi	s7,s7,-812 # 4c858 <_nl_default_dirname>
   11b8c:	da9ff06f          	j	11934 <__dcigettext+0x148>
   11b90:	020db503          	ld	a0,32(s11)
   11b94:	e20508e3          	beqz	a0,119c4 <__dcigettext+0x1d8>
   11b98:	028d8313          	addi	t1,s11,40
   11b9c:	f2043823          	sd	zero,-208(s0)
   11ba0:	0200006f          	j	11bc0 <__dcigettext+0x3d4>
   11ba4:	f2843303          	ld	t1,-216(s0)
   11ba8:	ee0512e3          	bnez	a0,11a8c <__dcigettext+0x2a0>
   11bac:	f3043603          	ld	a2,-208(s0)
   11bb0:	ff833503          	ld	a0,-8(t1)
   11bb4:	0016069b          	addiw	a3,a2,1
   11bb8:	f2d43823          	sd	a3,-208(s0)
   11bbc:	e00504e3          	beqz	a0,119c4 <__dcigettext+0x1d8>
   11bc0:	0321                	c.addi	t1,8
   11bc2:	864e                	c.mv	a2,s3
   11bc4:	f4840713          	addi	a4,s0,-184
   11bc8:	4685                	c.li	a3,1
   11bca:	85a6                	c.mv	a1,s1
   11bcc:	f2643423          	sd	t1,-216(s0)
   11bd0:	f0643823          	sd	t1,-240(s0)
   11bd4:	be4ff0ef          	jal	ra,10fb8 <_nl_find_msg>
   11bd8:	567d                	c.li	a2,-1
   11bda:	87aa                	c.mv	a5,a0
   11bdc:	fcc514e3          	bne	a0,a2,11ba4 <__dcigettext+0x3b8>
   11be0:	e49ff06f          	j	11a28 <__dcigettext+0x23c>
   11be4:	8b81ba03          	ld	s4,-1864(gp) # 6c9c8 <_nl_current_default_domain>
   11be8:	01500533          	add	a0,zero,s5
   11bec:	f6043823          	sd	zero,-144(s0)
   11bf0:	f9343423          	sd	s3,-120(s0)
   11bf4:	f5443823          	sd	s4,-176(s0)
   11bf8:	f5542c23          	sw	s5,-168(s0)
   11bfc:	199180ef          	jal	ra,2a594 <__current_locale_name>
   11c00:	f0a43423          	sd	a0,-248(s0)
   11c04:	f6a43023          	sd	a0,-160(s0)
   11c08:	c6049ae3          	bnez	s1,1187c <__dcigettext+0x90>
   11c0c:	c7dff06f          	j	11888 <__dcigettext+0x9c>
   11c10:	02873783          	ld	a5,40(a4)
   11c14:	040b1e63          	bnez	s6,11c70 <__dcigettext+0x484>
   11c18:	fffee497          	auipc	s1,0xfffee
   11c1c:	3e848493          	addi	s1,s1,1000 # 0 <_nl_current_LC_CTYPE>
   11c20:	02048263          	beqz	s1,11c44 <__dcigettext+0x458>
   11c24:	0b818513          	addi	a0,gp,184 # 6d1c8 <_nl_state_lock>
   11c28:	f2f43c23          	sd	a5,-200(s0)
   11c2c:	00000097          	auipc	ra,0x0
   11c30:	000000e7          	jalr	zero # 0 <_nl_current_LC_CTYPE>
   11c34:	5d018513          	addi	a0,gp,1488 # 6d6e0 <__libc_setlocale_lock>
   11c38:	00000097          	auipc	ra,0x0
   11c3c:	000000e7          	jalr	zero # 0 <_nl_current_LC_CTYPE>
   11c40:	f3843783          	ld	a5,-200(s0)
   11c44:	f1843583          	ld	a1,-232(s0)
   11c48:	02b22023          	sw	a1,32(tp) # 20 <__libc_errno>
   11c4c:	e1dff06f          	j	11a68 <__dcigettext+0x27c>
   11c50:	0003b517          	auipc	a0,0x3b
   11c54:	bf050513          	addi	a0,a0,-1040 # 4c840 <errstr.11175+0x78>
   11c58:	7c5020ef          	jal	ra,14c1c <getenv>
   11c5c:	d00506e3          	beqz	a0,11968 <__dcigettext+0x17c>
   11c60:	00054783          	lbu	a5,0(a0)
   11c64:	d00782e3          	beqz	a5,11968 <__dcigettext+0x17c>
   11c68:	8d2a                	c.mv	s10,a0
   11c6a:	b9fd                	c.j	11968 <__dcigettext+0x17c>
   11c6c:	4781                	c.li	a5,0
   11c6e:	bbed                	c.j	11a68 <__dcigettext+0x27c>
   11c70:	7310                	c.ld	a2,32(a4)
   11c72:	7b14                	c.ld	a3,48(a4)
   11c74:	6a08                	c.ld	a0,16(a2)
   11c76:	85e6                	c.mv	a1,s9
   11c78:	00f00633          	add	a2,zero,a5
   11c7c:	ae8ff0ef          	jal	ra,10f64 <plural_lookup.isra.2>
   11c80:	87aa                	c.mv	a5,a0
   11c82:	bf59                	c.j	11c18 <__dcigettext+0x42c>
   11c84:	01300533          	add	a0,zero,s3
   11c88:	1b80e0ef          	jal	ra,1fe40 <strlen>
   11c8c:	f0843b83          	ld	s7,-248(s0)
   11c90:	00150493          	addi	s1,a0,1
   11c94:	01700533          	add	a0,zero,s7
   11c98:	1a80e0ef          	jal	ra,1fe40 <strlen>
   11c9c:	f0043c03          	ld	s8,-256(s0)
   11ca0:	03ac0713          	addi	a4,s8,58
   11ca4:	953a                	c.add	a0,a4
   11ca6:	9526                	c.add	a0,s1
   11ca8:	2bd0c0ef          	jal	ra,1e764 <__libc_malloc>
   11cac:	f3843783          	ld	a5,-200(s0)
   11cb0:	892a                	c.mv	s2,a0
   11cb2:	e0050de3          	beqz	a0,11acc <__dcigettext+0x2e0>
   11cb6:	8626                	c.mv	a2,s1
   11cb8:	013005b3          	add	a1,zero,s3
   11cbc:	03850513          	addi	a0,a0,56
   11cc0:	7790e0ef          	jal	ra,20c38 <__mempcpy>
   11cc4:	001c0993          	addi	s3,s8,1
   11cc8:	84aa                	c.mv	s1,a0
   11cca:	864e                	c.mv	a2,s3
   11ccc:	014005b3          	add	a1,zero,s4
   11cd0:	7e50e0ef          	jal	ra,20cb4 <memcpy>
   11cd4:	99a6                	c.add	s3,s1
   11cd6:	85de                	c.mv	a1,s7
   11cd8:	01300533          	add	a0,zero,s3
   11cdc:	77d0d0ef          	jal	ra,1fc58 <strcpy>
   11ce0:	0005c717          	auipc	a4,0x5c
   11ce4:	17872703          	lw	a4,376(a4) # 6de58 <_nl_msg_cat_cntr>
   11ce8:	00e92c23          	sw	a4,24(s2)
   11cec:	f3843783          	ld	a5,-200(s0)
   11cf0:	f4843703          	ld	a4,-184(s0)
   11cf4:	00993023          	sd	s1,0(s2)
   11cf8:	02e93823          	sd	a4,48(s2)
   11cfc:	01592423          	sw	s5,8(s2)
   11d00:	01393823          	sd	s3,16(s2)
   11d04:	03b93023          	sd	s11,32(s2)
   11d08:	02f93423          	sd	a5,40(s2)
   11d0c:	fffee717          	auipc	a4,0xfffee
   11d10:	2f470713          	addi	a4,a4,756 # 0 <_nl_current_LC_CTYPE>
   11d14:	00070a63          	beqz	a4,11d28 <__dcigettext+0x53c>
   11d18:	0f018513          	addi	a0,gp,240 # 6d200 <tree_lock>
   11d1c:	00000097          	auipc	ra,0x0
   11d20:	000000e7          	jalr	zero # 0 <_nl_current_LC_CTYPE>
   11d24:	f3843783          	ld	a5,-200(s0)
   11d28:	a3018593          	addi	a1,gp,-1488 # 6cb40 <root>
   11d2c:	fffff617          	auipc	a2,0xfffff
   11d30:	1e460613          	addi	a2,a2,484 # 10f10 <transcmp>
   11d34:	01200533          	add	a0,zero,s2
   11d38:	f2f43c23          	sd	a5,-200(s0)
   11d3c:	16d100ef          	jal	ra,226a8 <__tsearch>
   11d40:	fffee597          	auipc	a1,0xfffee
   11d44:	2c058593          	addi	a1,a1,704 # 0 <_nl_current_LC_CTYPE>
   11d48:	84aa                	c.mv	s1,a0
   11d4a:	f3843783          	ld	a5,-200(s0)
   11d4e:	c989                	c.beqz	a1,11d60 <__dcigettext+0x574>
   11d50:	0f018513          	addi	a0,gp,240 # 6d200 <tree_lock>
   11d54:	00000097          	auipc	ra,0x0
   11d58:	000000e7          	jalr	zero # 0 <_nl_current_LC_CTYPE>
   11d5c:	f3843783          	ld	a5,-200(s0)
   11d60:	c481                	c.beqz	s1,11d68 <__dcigettext+0x57c>
   11d62:	6098                	c.ld	a4,0(s1)
   11d64:	d72704e3          	beq	a4,s2,11acc <__dcigettext+0x2e0>
   11d68:	01200533          	add	a0,zero,s2
   11d6c:	f2f43c23          	sd	a5,-200(s0)
   11d70:	6c50c0ef          	jal	ra,1ec34 <__free>
   11d74:	f3843783          	ld	a5,-200(s0)
   11d78:	bb91                	c.j	11acc <__dcigettext+0x2e0>
	...

0000000000011d7c <_nl_find_domain>:
   11d7c:	7135                	c.addi16sp	sp,-160
   11d7e:	e922                	c.sdsp	s0,144(sp)
   11d80:	e14a                	c.sdsp	s2,128(sp)
   11d82:	f8d2                	c.sdsp	s4,112(sp)
   11d84:	f4d6                	c.sdsp	s5,104(sp)
   11d86:	ed06                	c.sdsp	ra,152(sp)
   11d88:	e526                	c.sdsp	s1,136(sp)
   11d8a:	fcce                	c.sdsp	s3,120(sp)
   11d8c:	f0da                	c.sdsp	s6,96(sp)
   11d8e:	ecde                	c.sdsp	s7,88(sp)
   11d90:	fffee797          	auipc	a5,0xfffee
   11d94:	27078793          	addi	a5,a5,624 # 0 <_nl_current_LC_CTYPE>
   11d98:	842a                	c.mv	s0,a0
   11d9a:	892e                	c.mv	s2,a1
   11d9c:	8a32                	c.mv	s4,a2
   11d9e:	8ab6                	c.mv	s5,a3
   11da0:	00078863          	beqz	a5,11db0 <_nl_find_domain+0x34>
   11da4:	12818513          	addi	a0,gp,296 # 6d238 <lock.10381>
   11da8:	00000097          	auipc	ra,0x0
   11dac:	000000e7          	jalr	zero # 0 <_nl_current_LC_CTYPE>
   11db0:	00800533          	add	a0,zero,s0
   11db4:	08c0e0ef          	jal	ra,1fe40 <strlen>
   11db8:	4881                	c.li	a7,0
   11dba:	00150613          	addi	a2,a0,1
   11dbe:	4801                	c.li	a6,0
   11dc0:	4781                	c.li	a5,0
   11dc2:	874a                	c.mv	a4,s2
   11dc4:	4681                	c.li	a3,0
   11dc6:	85a2                	c.mv	a1,s0
   11dc8:	a3818513          	addi	a0,gp,-1480 # 6cb48 <_nl_loaded_domains>
   11dcc:	fffee997          	auipc	s3,0xfffee
   11dd0:	23498993          	addi	s3,s3,564 # 0 <_nl_current_LC_CTYPE>
   11dd4:	e802                	c.sdsp	zero,16(sp)
   11dd6:	e452                	c.sdsp	s4,8(sp)
   11dd8:	00013023          	sd	zero,0(sp)
   11ddc:	774010ef          	jal	ra,13550 <_nl_make_l10nflist>
   11de0:	00a004b3          	add	s1,zero,a0
   11de4:	00098863          	beqz	s3,11df4 <_nl_find_domain+0x78>
   11de8:	12818513          	addi	a0,gp,296 # 6d238 <lock.10381>
   11dec:	00000097          	auipc	ra,0x0
   11df0:	000000e7          	jalr	zero # 0 <_nl_current_LC_CTYPE>
   11df4:	cca1                	c.beqz	s1,11e4c <_nl_find_domain+0xd0>
   11df6:	449c                	c.lw	a5,8(s1)
   11df8:	04f05463          	blez	a5,11e40 <_nl_find_domain+0xc4>
   11dfc:	689c                	c.ld	a5,16(s1)
   11dfe:	cf89                	c.beqz	a5,11e18 <_nl_find_domain+0x9c>
   11e00:	60ea                	c.ldsp	ra,152(sp)
   11e02:	644a                	c.ldsp	s0,144(sp)
   11e04:	8526                	c.mv	a0,s1
   11e06:	690a                	c.ldsp	s2,128(sp)
   11e08:	64aa                	c.ldsp	s1,136(sp)
   11e0a:	79e6                	c.ldsp	s3,120(sp)
   11e0c:	7a46                	c.ldsp	s4,112(sp)
   11e0e:	7aa6                	c.ldsp	s5,104(sp)
   11e10:	7b06                	c.ldsp	s6,96(sp)
   11e12:	6be6                	c.ldsp	s7,88(sp)
   11e14:	610d                	c.addi16sp	sp,160
   11e16:	8082                	c.jr	ra
   11e18:	7088                	c.ld	a0,32(s1)
   11e1a:	d17d                	c.beqz	a0,11e00 <_nl_find_domain+0x84>
   11e1c:	02048413          	addi	s0,s1,32
   11e20:	0100006f          	j	11e30 <_nl_find_domain+0xb4>
   11e24:	601c                	c.ld	a5,0(s0)
   11e26:	0421                	c.addi	s0,8
   11e28:	6b9c                	c.ld	a5,16(a5)
   11e2a:	fbf9                	c.bnez	a5,11e00 <_nl_find_domain+0x84>
   11e2c:	6008                	c.ld	a0,0(s0)
   11e2e:	d969                	c.beqz	a0,11e00 <_nl_find_domain+0x84>
   11e30:	451c                	c.lw	a5,8(a0)
   11e32:	fef049e3          	bgtz	a5,11e24 <_nl_find_domain+0xa8>
   11e36:	85d6                	c.mv	a1,s5
   11e38:	108000ef          	jal	ra,11f40 <_nl_load_domain>
   11e3c:	fe9ff06f          	j	11e24 <_nl_find_domain+0xa8>
   11e40:	85d6                	c.mv	a1,s5
   11e42:	8526                	c.mv	a0,s1
   11e44:	0fc000ef          	jal	ra,11f40 <_nl_load_domain>
   11e48:	fb5ff06f          	j	11dfc <_nl_find_domain+0x80>
   11e4c:	01200533          	add	a0,zero,s2
   11e50:	584010ef          	jal	ra,133d4 <_nl_expand_alias>
   11e54:	8baa                	c.mv	s7,a0
   11e56:	cd19                	c.beqz	a0,11e74 <_nl_find_domain+0xf8>
   11e58:	7e90d0ef          	jal	ra,1fe40 <strlen>
   11e5c:	00150b13          	addi	s6,a0,1
   11e60:	01600533          	add	a0,zero,s6
   11e64:	1010c0ef          	jal	ra,1e764 <__libc_malloc>
   11e68:	892a                	c.mv	s2,a0
   11e6a:	d959                	c.beqz	a0,11e00 <_nl_find_domain+0x84>
   11e6c:	865a                	c.mv	a2,s6
   11e6e:	85de                	c.mv	a1,s7
   11e70:	6450e0ef          	jal	ra,20cb4 <memcpy>
   11e74:	00bc                	c.addi4spn	a5,sp,72
   11e76:	0098                	c.addi4spn	a4,sp,64
   11e78:	1834                	c.addi4spn	a3,sp,56
   11e7a:	1810                	c.addi4spn	a2,sp,48
   11e7c:	102c                	c.addi4spn	a1,sp,40
   11e7e:	854a                	c.mv	a0,s2
   11e80:	3ad010ef          	jal	ra,13a2c <_nl_explode_name>
   11e84:	57fd                	c.li	a5,-1
   11e86:	8b2a                	c.mv	s6,a0
   11e88:	f6f50ce3          	beq	a0,a5,11e00 <_nl_find_domain+0x84>
   11e8c:	fffee797          	auipc	a5,0xfffee
   11e90:	17478793          	addi	a5,a5,372 # 0 <_nl_current_LC_CTYPE>
   11e94:	00078863          	beqz	a5,11ea4 <_nl_find_domain+0x128>
   11e98:	12818513          	addi	a0,gp,296 # 6d238 <lock.10381>
   11e9c:	00000097          	auipc	ra,0x0
   11ea0:	000000e7          	jalr	zero # 0 <_nl_current_LC_CTYPE>
   11ea4:	00800533          	add	a0,zero,s0
   11ea8:	7990d0ef          	jal	ra,1fe40 <strlen>
   11eac:	4305                	c.li	t1,1
   11eae:	e81a                	c.sdsp	t1,16(sp)
   11eb0:	68a6                	c.ldsp	a7,72(sp)
   11eb2:	7342                	c.ldsp	t1,48(sp)
   11eb4:	6806                	c.ldsp	a6,64(sp)
   11eb6:	77e2                	c.ldsp	a5,56(sp)
   11eb8:	7722                	c.ldsp	a4,40(sp)
   11eba:	00150613          	addi	a2,a0,1
   11ebe:	86da                	c.mv	a3,s6
   11ec0:	85a2                	c.mv	a1,s0
   11ec2:	a3818513          	addi	a0,gp,-1480 # 6cb48 <_nl_loaded_domains>
   11ec6:	e452                	c.sdsp	s4,8(sp)
   11ec8:	00613023          	sd	t1,0(sp)
   11ecc:	684010ef          	jal	ra,13550 <_nl_make_l10nflist>
   11ed0:	00a004b3          	add	s1,zero,a0
   11ed4:	00098863          	beqz	s3,11ee4 <_nl_find_domain+0x168>
   11ed8:	12818513          	addi	a0,gp,296 # 6d238 <lock.10381>
   11edc:	00000097          	auipc	ra,0x0
   11ee0:	000000e7          	jalr	zero # 0 <_nl_current_LC_CTYPE>
   11ee4:	cc81                	c.beqz	s1,11efc <_nl_find_domain+0x180>
   11ee6:	449c                	c.lw	a5,8(s1)
   11ee8:	04f05663          	blez	a5,11f34 <_nl_find_domain+0x1b8>
   11eec:	689c                	c.ld	a5,16(s1)
   11eee:	cf99                	c.beqz	a5,11f0c <_nl_find_domain+0x190>
   11ef0:	000b8663          	beqz	s7,11efc <_nl_find_domain+0x180>
   11ef4:	01200533          	add	a0,zero,s2
   11ef8:	53d0c0ef          	jal	ra,1ec34 <__free>
   11efc:	b00b725b          	bbc	s6,0,11e00 <_nl_find_domain+0x84>
   11f00:	04813503          	ld	a0,72(sp)
   11f04:	5310c0ef          	jal	ra,1ec34 <__free>
   11f08:	ef9ff06f          	j	11e00 <_nl_find_domain+0x84>
   11f0c:	7088                	c.ld	a0,32(s1)
   11f0e:	d16d                	c.beqz	a0,11ef0 <_nl_find_domain+0x174>
   11f10:	02048413          	addi	s0,s1,32
   11f14:	0100006f          	j	11f24 <_nl_find_domain+0x1a8>
   11f18:	601c                	c.ld	a5,0(s0)
   11f1a:	0421                	c.addi	s0,8
   11f1c:	6b9c                	c.ld	a5,16(a5)
   11f1e:	fbe9                	c.bnez	a5,11ef0 <_nl_find_domain+0x174>
   11f20:	6008                	c.ld	a0,0(s0)
   11f22:	d579                	c.beqz	a0,11ef0 <_nl_find_domain+0x174>
   11f24:	451c                	c.lw	a5,8(a0)
   11f26:	fef049e3          	bgtz	a5,11f18 <_nl_find_domain+0x19c>
   11f2a:	85d6                	c.mv	a1,s5
   11f2c:	014000ef          	jal	ra,11f40 <_nl_load_domain>
   11f30:	fe9ff06f          	j	11f18 <_nl_find_domain+0x19c>
   11f34:	85d6                	c.mv	a1,s5
   11f36:	8526                	c.mv	a0,s1
   11f38:	008000ef          	jal	ra,11f40 <_nl_load_domain>
   11f3c:	bf45                	c.j	11eec <_nl_find_domain+0x170>
	...

0000000000011f40 <_nl_load_domain>:
   11f40:	7165                	c.addi16sp	sp,-400
   11f42:	e322                	c.sdsp	s0,384(sp)
   11f44:	fea6                	c.sdsp	s1,376(sp)
   11f46:	faca                	c.sdsp	s2,368(sp)
   11f48:	e2e2                	c.sdsp	s8,320(sp)
   11f4a:	e706                	c.sdsp	ra,392(sp)
   11f4c:	f6ce                	c.sdsp	s3,360(sp)
   11f4e:	f2d2                	c.sdsp	s4,352(sp)
   11f50:	eed6                	c.sdsp	s5,344(sp)
   11f52:	eada                	c.sdsp	s6,336(sp)
   11f54:	e6de                	c.sdsp	s7,328(sp)
   11f56:	fe66                	c.sdsp	s9,312(sp)
   11f58:	fa6a                	c.sdsp	s10,304(sp)
   11f5a:	f66e                	c.sdsp	s11,296(sp)
   11f5c:	8f020913          	addi	s2,tp,-1808 # fffffffffffff8f0 <_end+0xfffffffffff91918>
   11f60:	1681b783          	ld	a5,360(gp) # 6d278 <lock.10285+0x8>
   11f64:	8c2a                	c.mv	s8,a0
   11f66:	84ae                	c.mv	s1,a1
   11f68:	16018413          	addi	s0,gp,352 # 6d270 <lock.10285>
   11f6c:	03278063          	beq	a5,s2,11f8c <_nl_load_domain+0x4c>
   11f70:	4705                	c.li	a4,1
   11f72:	100427af          	lr.w	a5,(s0)
   11f76:	00079563          	bnez	a5,11f80 <_nl_load_domain+0x40>
   11f7a:	1ce4262f          	sc.w.aq	a2,a4,(s0)
   11f7e:	fa75                	c.bnez	a2,11f72 <_nl_load_domain+0x32>
   11f80:	7c07b7db          	bfos	a5,a5,31,0
   11f84:	38079a63          	bnez	a5,12318 <_nl_load_domain+0x3d8>
   11f88:	1721b423          	sd	s2,360(gp) # 6d278 <lock.10285+0x8>
   11f8c:	1641a783          	lw	a5,356(gp) # 6d274 <lock.10285+0x4>
   11f90:	2785                	c.addiw	a5,1
   11f92:	008c2703          	lw	a4,8(s8)
   11f96:	16f1a223          	sw	a5,356(gp) # 6d274 <lock.10285+0x4>
   11f9a:	e71d                	c.bnez	a4,11fc8 <_nl_load_domain+0x88>
   11f9c:	577d                	c.li	a4,-1
   11f9e:	000c3503          	ld	a0,0(s8)
   11fa2:	00ec2423          	sw	a4,8(s8)
   11fa6:	000c3823          	sd	zero,16(s8)
   11faa:	c919                	c.beqz	a0,11fc0 <_nl_load_domain+0x80>
   11fac:	4581                	c.li	a1,0
   11fae:	5afd                	c.li	s5,-1
   11fb0:	274100ef          	jal	ra,22224 <__open64_nocancel>
   11fb4:	00a00a33          	add	s4,zero,a0
   11fb8:	07551463          	bne	a0,s5,12020 <_nl_load_domain+0xe0>
   11fbc:	1641a783          	lw	a5,356(gp) # 6d274 <lock.10285+0x4>
   11fc0:	00100713          	li	a4,1
   11fc4:	00ec2423          	sw	a4,8(s8)
   11fc8:	fff7871b          	addiw	a4,a5,-1
   11fcc:	16e1a223          	sw	a4,356(gp) # 6d274 <lock.10285+0x4>
   11fd0:	85ba                	c.mv	a1,a4
   11fd2:	c30d                	c.beqz	a4,11ff4 <_nl_load_domain+0xb4>
   11fd4:	60ba                	c.ldsp	ra,392(sp)
   11fd6:	641a                	c.ldsp	s0,384(sp)
   11fd8:	74f6                	c.ldsp	s1,376(sp)
   11fda:	7956                	c.ldsp	s2,368(sp)
   11fdc:	79b6                	c.ldsp	s3,360(sp)
   11fde:	7a16                	c.ldsp	s4,352(sp)
   11fe0:	6af6                	c.ldsp	s5,344(sp)
   11fe2:	6b56                	c.ldsp	s6,336(sp)
   11fe4:	6bb6                	c.ldsp	s7,328(sp)
   11fe6:	6c16                	c.ldsp	s8,320(sp)
   11fe8:	7cf2                	c.ldsp	s9,312(sp)
   11fea:	7d52                	c.ldsp	s10,304(sp)
   11fec:	7db2                	c.ldsp	s11,296(sp)
   11fee:	6159                	c.addi16sp	sp,400
   11ff0:	00008067          	ret
   11ff4:	1601b423          	sd	zero,360(gp) # 6d278 <lock.10285+0x8>
   11ff8:	0f50000f          	fence	iorw,ow
   11ffc:	08b425af          	amoswap.w	a1,a1,(s0)
   12000:	7c05b7db          	bfos	a5,a1,31,0
   12004:	4705                	c.li	a4,1
   12006:	fcf757e3          	bge	a4,a5,11fd4 <_nl_load_domain+0x94>
   1200a:	06200893          	li	a7,98
   1200e:	16018513          	addi	a0,gp,352 # 6d270 <lock.10285>
   12012:	08100593          	li	a1,129
   12016:	4605                	c.li	a2,1
   12018:	4681                	c.li	a3,0
   1201a:	00000073          	ecall
   1201e:	bf5d                	c.j	11fd4 <_nl_load_domain+0x94>
   12020:	85aa                	c.mv	a1,a0
   12022:	1110                	c.addi4spn	a2,sp,160
   12024:	00000513          	li	a0,0
   12028:	2b50f0ef          	jal	ra,21adc <__fxstat>
   1202c:	8b2a                	c.mv	s6,a0
   1202e:	2c051d63          	bnez	a0,12308 <_nl_load_domain+0x3c8>
   12032:	69ce                	c.ldsp	s3,208(sp)
   12034:	02f00793          	li	a5,47
   12038:	2d37f863          	bgeu	a5,s3,12308 <_nl_load_domain+0x3c8>
   1203c:	4781                	c.li	a5,0
   1203e:	8752                	c.mv	a4,s4
   12040:	4689                	c.li	a3,2
   12042:	4605                	c.li	a2,1
   12044:	013005b3          	add	a1,zero,s3
   12048:	3f0100ef          	jal	ra,22438 <__mmap64>
   1204c:	892a                	c.mv	s2,a0
   1204e:	33550f63          	beq	a0,s5,1238c <_nl_load_domain+0x44c>
   12052:	8552                	c.mv	a0,s4
   12054:	138100ef          	jal	ra,2218c <__close_nocancel>
   12058:	950417b7          	lui	a5,0x95041
   1205c:	00092703          	lw	a4,0(s2)
   12060:	2de78793          	addi	a5,a5,734 # ffffffff950412de <_end+0xffffffff94fd3306>
   12064:	00100a13          	li	s4,1
   12068:	4cf71463          	bne	a4,a5,12530 <_nl_load_domain+0x5f0>
   1206c:	0c800513          	li	a0,200
   12070:	6f40c0ef          	jal	ra,1e764 <__libc_malloc>
   12074:	8d2a                	c.mv	s10,a0
   12076:	d139                	c.beqz	a0,11fbc <_nl_load_domain+0x7c>
   12078:	00492b83          	lw	s7,4(s2)
   1207c:	4705                	c.li	a4,1
   1207e:	01ac3823          	sd	s10,16(s8)
   12082:	012d3023          	sd	s2,0(s10)
   12086:	014d2423          	sw	s4,8(s10)
   1208a:	013d3823          	sd	s3,16(s10)
   1208e:	000d2c23          	sw	zero,24(s10)
   12092:	020d3023          	sd	zero,32(s10)
   12096:	410bd693          	srai	a3,s7,0x10
   1209a:	2ed76763          	bltu	a4,a3,12388 <_nl_load_domain+0x448>
   1209e:	00c96683          	lwu	a3,12(s2)
   120a2:	01096703          	lwu	a4,16(s2)
   120a6:	00892603          	lw	a2,8(s2)
   120aa:	01492d83          	lw	s11,20(s2)
   120ae:	974a                	c.add	a4,s2
   120b0:	96ca                	c.add	a3,s2
   120b2:	02ed3c23          	sd	a4,56(s10)
   120b6:	02cd2423          	sw	a2,40(s10)
   120ba:	02dd3823          	sd	a3,48(s10)
   120be:	05bd2c23          	sw	s11,88(s10)
   120c2:	4709                	c.li	a4,2
   120c4:	27b77063          	bgeu	a4,s11,12324 <_nl_load_domain+0x3e4>
   120c8:	95041ab7          	lui	s5,0x95041
   120cc:	01896703          	lwu	a4,24(s2)
   120d0:	2dea8a93          	addi	s5,s5,734 # ffffffff950412de <_end+0xffffffff94fd3306>
   120d4:	974a                	c.add	a4,s2
   120d6:	06ed3023          	sd	a4,96(s10)
   120da:	076d2423          	sw	s6,104(s10)
   120de:	3c0babdb          	bfoz	s7,s7,15,0
   120e2:	240b8963          	beqz	s7,12334 <_nl_load_domain+0x3f4>
   120e6:	26070d63          	beqz	a4,12360 <_nl_load_domain+0x420>
   120ea:	02492503          	lw	a0,36(s2)
   120ee:	95041737          	lui	a4,0x95041
   120f2:	2de70713          	addi	a4,a4,734 # ffffffff950412de <_end+0xffffffff94fd3306>
   120f6:	f82a                	c.sdsp	a0,48(sp)
   120f8:	44ea8a63          	beq	s5,a4,1254c <_nl_load_domain+0x60c>
   120fc:	4b1350ef          	jal	ra,47dac <__bswapsi2>
   12100:	7c0535db          	bfos	a1,a0,31,0
   12104:	02b13823          	sd	a1,48(sp)
   12108:	22058663          	beqz	a1,12334 <_nl_load_domain+0x3f4>
   1210c:	01c92503          	lw	a0,28(s2)
   12110:	49d350ef          	jal	ra,47dac <__bswapsi2>
   12114:	7c053cdb          	bfos	s9,a0,31,0
   12118:	02092503          	lw	a0,32(s2)
   1211c:	491350ef          	jal	ra,47dac <__bswapsi2>
   12120:	7c052b5b          	bfoz	s6,a0,31,0
   12124:	00800593          	li	a1,8
   12128:	7c0ca55b          	bfoz	a0,s9,31,0
   1212c:	7cd0c0ef          	jal	ra,1f0f8 <__calloc>
   12130:	e42a                	c.sdsp	a0,8(sp)
   12132:	22050763          	beqz	a0,12360 <_nl_load_domain+0x420>
   12136:	080c8763          	beqz	s9,121c4 <_nl_load_domain+0x284>
   1213a:	00890713          	addi	a4,s2,8
   1213e:	fffc831b          	addiw	t1,s9,-1
   12142:	975a                	c.add	a4,s6
   12144:	95041e37          	lui	t3,0x95041
   12148:	00813583          	ld	a1,8(sp)
   1214c:	01690633          	add	a2,s2,s6
   12150:	2dee0b93          	addi	s7,t3,734 # ffffffff950412de <_end+0xffffffff94fd3306>
   12154:	16670b5b          	lea.d.ze	s6,a4,t1
   12158:	4248                	c.lw	a0,4(a2)
   1215a:	4218                	c.lw	a4,0(a2)
   1215c:	337a8663          	beq	s5,s7,12488 <_nl_load_domain+0x548>
   12160:	f432                	c.sdsp	a2,40(sp)
   12162:	ec2e                	c.sdsp	a1,24(sp)
   12164:	02e13023          	sd	a4,32(sp)
   12168:	445350ef          	jal	ra,47dac <__bswapsi2>
   1216c:	7702                	c.ldsp	a4,32(sp)
   1216e:	10a906db          	lea.b.ze	a3,s2,a0
   12172:	853a                	c.mv	a0,a4
   12174:	00d13823          	sd	a3,16(sp)
   12178:	435350ef          	jal	ra,47dac <__bswapsi2>
   1217c:	66c2                	c.ldsp	a3,16(sp)
   1217e:	65e2                	c.ldsp	a1,24(sp)
   12180:	02813603          	ld	a2,40(sp)
   12184:	7c05375b          	bfos	a4,a0,31,0
   12188:	3e070663          	beqz	a4,12574 <_nl_load_domain+0x634>
   1218c:	377d                	c.addiw	a4,-1
   1218e:	10e6875b          	lea.b.ze	a4,a3,a4
   12192:	00074e83          	lbu	t4,0(a4)
   12196:	3c0e9f63          	bnez	t4,12574 <_nl_load_domain+0x634>
   1219a:	0006c503          	lbu	a0,0(a3)
   1219e:	6f05595b          	beqc	a0,80,12490 <_nl_load_domain+0x550>
   121a2:	4701                	c.li	a4,0
   121a4:	40956a5b          	bnec	a0,73,121b8 <_nl_load_domain+0x278>
   121a8:	0016c683          	lbu	a3,1(a3)
   121ac:	00069663          	bnez	a3,121b8 <_nl_load_domain+0x278>
   121b0:	0003a717          	auipc	a4,0x3a
   121b4:	71070713          	addi	a4,a4,1808 # 4c8c0 <_nl_default_default_domain+0x50>
   121b8:	e198                	c.sd	a4,0(a1)
   121ba:	0621                	c.addi	a2,8
   121bc:	00858593          	addi	a1,a1,8
   121c0:	f8cb1ce3          	bne	s6,a2,12158 <_nl_load_domain+0x218>
   121c4:	95041737          	lui	a4,0x95041
   121c8:	2de70713          	addi	a4,a4,734 # ffffffff950412de <_end+0xffffffff94fd3306>
   121cc:	02892503          	lw	a0,40(s2)
   121d0:	02c92b03          	lw	s6,44(s2)
   121d4:	40ea8663          	beq	s5,a4,125e0 <_nl_load_domain+0x6a0>
   121d8:	3d5350ef          	jal	ra,47dac <__bswapsi2>
   121dc:	10a905db          	lea.b.ze	a1,s2,a0
   121e0:	855a                	c.mv	a0,s6
   121e2:	f4ae                	c.sdsp	a1,104(sp)
   121e4:	3c9350ef          	jal	ra,47dac <__bswapsi2>
   121e8:	7c05255b          	bfoz	a0,a0,31,0
   121ec:	75c2                	c.ldsp	a1,48(sp)
   121ee:	76a6                	c.ldsp	a3,104(sp)
   121f0:	fff5871b          	addiw	a4,a1,-1
   121f4:	0a17275b          	bfoz	a4,a4,2,33
   121f8:	0a1da65b          	bfoz	a2,s11,2,33
   121fc:	00a905b3          	add	a1,s2,a0
   12200:	0711                	c.addi	a4,4
   12202:	95041db7          	lui	s11,0x95041
   12206:	f8b2                	c.sdsp	a2,112(sp)
   12208:	e4b6                	c.sdsp	a3,72(sp)
   1220a:	e8b2                	c.sdsp	a2,80(sp)
   1220c:	00b706b3          	add	a3,a4,a1
   12210:	2ded8613          	addi	a2,s11,734 # ffffffff950412de <_end+0xffffffff94fd3306>
   12214:	09010b93          	addi	s7,sp,144
   12218:	ecae                	c.sdsp	a1,88(sp)
   1221a:	f0b6                	c.sdsp	a3,96(sp)
   1221c:	fc2e                	c.sdsp	a1,56(sp)
   1221e:	e082                	c.sdsp	zero,64(sp)
   12220:	00c13823          	sd	a2,16(sp)
   12224:	f05e                	c.sdsp	s7,32(sp)
   12226:	ec02                	c.sdsp	zero,24(sp)
   12228:	65c2                	c.ldsp	a1,16(sp)
   1222a:	32ba8963          	beq	s5,a1,1255c <_nl_load_domain+0x61c>
   1222e:	65e2                	c.ldsp	a1,24(sp)
   12230:	72058863          	beqz	a1,12960 <_nl_load_domain+0xa20>
   12234:	75e2                	c.ldsp	a1,56(sp)
   12236:	4188                	c.lw	a0,0(a1)
   12238:	375350ef          	jal	ra,47dac <__bswapsi2>
   1223c:	10a906db          	lea.b.ze	a3,s2,a0
   12240:	4688                	c.lw	a0,8(a3)
   12242:	f436                	c.sdsp	a3,40(sp)
   12244:	369350ef          	jal	ra,47dac <__bswapsi2>
   12248:	7c05375b          	bfos	a4,a0,31,0
   1224c:	0705                	c.addi	a4,1
   1224e:	76a2                	c.ldsp	a3,40(sp)
   12250:	00e03733          	snez	a4,a4
   12254:	00000b13          	li	s6,0
   12258:	32071a63          	bnez	a4,1258c <_nl_load_domain+0x64c>
   1225c:	7582                	c.ldsp	a1,32(sp)
   1225e:	0165b023          	sd	s6,0(a1)
   12262:	05a1                	c.addi	a1,8
   12264:	f02e                	c.sdsp	a1,32(sp)
   12266:	65e2                	c.ldsp	a1,24(sp)
   12268:	3015ee5b          	bnec	a1,1,12584 <_nl_load_domain+0x644>
   1226c:	6586                	c.ldsp	a1,64(sp)
   1226e:	674a                	c.ldsp	a4,144(sp)
   12270:	2585                	c.addiw	a1,1
   12272:	66ea                	c.ldsp	a3,152(sp)
   12274:	e0ae                	c.sdsp	a1,64(sp)
   12276:	65c6                	c.ldsp	a1,80(sp)
   12278:	9736                	c.add	a4,a3
   1227a:	95ba                	c.add	a1,a4
   1227c:	04b13823          	sd	a1,80(sp)
   12280:	6626                	c.ldsp	a2,72(sp)
   12282:	75e2                	c.ldsp	a1,56(sp)
   12284:	0611                	c.addi	a2,4
   12286:	0591                	c.addi	a1,4
   12288:	e4b2                	c.sdsp	a2,72(sp)
   1228a:	7606                	c.ldsp	a2,96(sp)
   1228c:	fc2e                	c.sdsp	a1,56(sp)
   1228e:	f8b61be3          	bne	a2,a1,12224 <_nl_load_domain+0x2e4>
   12292:	6586                	c.ldsp	a1,64(sp)
   12294:	3e059a63          	bnez	a1,12688 <_nl_load_domain+0x748>
   12298:	040d2023          	sw	zero,64(s10)
   1229c:	040d3423          	sd	zero,72(s10)
   122a0:	040d3823          	sd	zero,80(s10)
   122a4:	00813503          	ld	a0,8(sp)
   122a8:	18d0c0ef          	jal	ra,1ec34 <__free>
   122ac:	060d3823          	sd	zero,112(s10)
   122b0:	060d3c23          	sd	zero,120(s10)
   122b4:	fffee717          	auipc	a4,0xfffee
   122b8:	d4c70713          	addi	a4,a4,-692 # 0 <_nl_current_LC_CTYPE>
   122bc:	cb01                	c.beqz	a4,122cc <_nl_load_domain+0x38c>
   122be:	4581                	c.li	a1,0
   122c0:	080d0513          	addi	a0,s10,128
   122c4:	00000097          	auipc	ra,0x0
   122c8:	000000e7          	jalr	zero # 0 <_nl_current_LC_CTYPE>
   122cc:	875e                	c.mv	a4,s7
   122ce:	4681                	c.li	a3,0
   122d0:	0004a617          	auipc	a2,0x4a
   122d4:	2d860613          	addi	a2,a2,728 # 5c5a8 <step3b_jumps.12768+0x1e0>
   122d8:	85a6                	c.mv	a1,s1
   122da:	8562                	c.mv	a0,s8
   122dc:	cddfe0ef          	jal	ra,10fb8 <_nl_find_msg>
   122e0:	fff00713          	li	a4,-1
   122e4:	06e50263          	beq	a0,a4,12348 <_nl_load_domain+0x408>
   122e8:	0c0d0613          	addi	a2,s10,192
   122ec:	0b8d0593          	addi	a1,s10,184
   122f0:	7f5010ef          	jal	ra,142e4 <__gettext_extract_plural>
   122f4:	1641a783          	lw	a5,356(gp) # 6d274 <lock.10285+0x4>
   122f8:	cc9ff06f          	j	11fc0 <_nl_load_domain+0x80>
   122fc:	01a51663          	bne	a0,s10,12308 <_nl_load_domain+0x3c8>
   12300:	02022783          	lw	a5,32(tp) # 20 <__libc_errno>
   12304:	0847de5b          	beqc	a5,4,123a0 <_nl_load_domain+0x460>
   12308:	01400533          	add	a0,zero,s4
   1230c:	6810f0ef          	jal	ra,2218c <__close_nocancel>
   12310:	1641a783          	lw	a5,356(gp) # 6d274 <lock.10285+0x4>
   12314:	cadff06f          	j	11fc0 <_nl_load_domain+0x80>
   12318:	00800533          	add	a0,zero,s0
   1231c:	661100ef          	jal	ra,2317c <__lll_lock_wait_private>
   12320:	c69ff06f          	j	11f88 <_nl_load_domain+0x48>
   12324:	060d3023          	sd	zero,96(s10)
   12328:	076d2423          	sw	s6,104(s10)
   1232c:	3c0babdb          	bfoz	s7,s7,15,0
   12330:	020b9863          	bnez	s7,12360 <_nl_load_domain+0x420>
   12334:	040d2023          	sw	zero,64(s10)
   12338:	040d3423          	sd	zero,72(s10)
   1233c:	040d3823          	sd	zero,80(s10)
   12340:	09010b93          	addi	s7,sp,144
   12344:	f69ff06f          	j	122ac <_nl_load_domain+0x36c>
   12348:	fffee717          	auipc	a4,0xfffee
   1234c:	cb870713          	addi	a4,a4,-840 # 0 <_nl_current_LC_CTYPE>
   12350:	00070863          	beqz	a4,12360 <_nl_load_domain+0x420>
   12354:	080d0513          	addi	a0,s10,128
   12358:	00000097          	auipc	ra,0x0
   1235c:	000000e7          	jalr	zero # 0 <_nl_current_LC_CTYPE>
   12360:	020d3503          	ld	a0,32(s10)
   12364:	0d10c0ef          	jal	ra,1ec34 <__free>
   12368:	100a0a63          	beqz	s4,1247c <_nl_load_domain+0x53c>
   1236c:	85ce                	c.mv	a1,s3
   1236e:	854a                	c.mv	a0,s2
   12370:	0f8100ef          	jal	ra,22468 <__munmap>
   12374:	01a00533          	add	a0,zero,s10
   12378:	0bd0c0ef          	jal	ra,1ec34 <__free>
   1237c:	1641a783          	lw	a5,356(gp) # 6d274 <lock.10285+0x4>
   12380:	000c3823          	sd	zero,16(s8)
   12384:	c3dff06f          	j	11fc0 <_nl_load_domain+0x80>
   12388:	4501                	c.li	a0,0
   1238a:	bfe9                	c.j	12364 <_nl_load_domain+0x424>
   1238c:	01300533          	add	a0,zero,s3
   12390:	3d40c0ef          	jal	ra,1e764 <__libc_malloc>
   12394:	892a                	c.mv	s2,a0
   12396:	d92d                	c.beqz	a0,12308 <_nl_load_domain+0x3c8>
   12398:	8baa                	c.mv	s7,a0
   1239a:	8ace                	c.mv	s5,s3
   1239c:	fff00d13          	li	s10,-1
   123a0:	8656                	c.mv	a2,s5
   123a2:	85de                	c.mv	a1,s7
   123a4:	01400533          	add	a0,zero,s4
   123a8:	74d0f0ef          	jal	ra,222f4 <__read_nocancel>
   123ac:	f4a058e3          	blez	a0,122fc <_nl_load_domain+0x3bc>
   123b0:	40aa8ab3          	sub	s5,s5,a0
   123b4:	9baa                	c.add	s7,a0
   123b6:	fe0a95e3          	bnez	s5,123a0 <_nl_load_domain+0x460>
   123ba:	8552                	c.mv	a0,s4
   123bc:	5d10f0ef          	jal	ra,2218c <__close_nocancel>
   123c0:	950417b7          	lui	a5,0x95041
   123c4:	00092703          	lw	a4,0(s2)
   123c8:	2de78793          	addi	a5,a5,734 # ffffffff950412de <_end+0xffffffff94fd3306>
   123cc:	00000a13          	li	s4,0
   123d0:	c8f70ee3          	beq	a4,a5,1206c <_nl_load_domain+0x12c>
   123d4:	de1207b7          	lui	a5,0xde120
   123d8:	49578793          	addi	a5,a5,1173 # ffffffffde120495 <_end+0xffffffffde0b24bd>
   123dc:	20f71863          	bne	a4,a5,125ec <_nl_load_domain+0x6ac>
   123e0:	0c800513          	li	a0,200
   123e4:	3800c0ef          	jal	ra,1e764 <__libc_malloc>
   123e8:	8d2a                	c.mv	s10,a0
   123ea:	bc0509e3          	beqz	a0,11fbc <_nl_load_domain+0x7c>
   123ee:	00492503          	lw	a0,4(s2)
   123f2:	4705                	c.li	a4,1
   123f4:	00ed2c23          	sw	a4,24(s10)
   123f8:	01ac3823          	sd	s10,16(s8)
   123fc:	012d3023          	sd	s2,0(s10)
   12400:	014d2423          	sw	s4,8(s10)
   12404:	013d3823          	sd	s3,16(s10)
   12408:	020d3023          	sd	zero,32(s10)
   1240c:	1a1350ef          	jal	ra,47dac <__bswapsi2>
   12410:	4705                	c.li	a4,1
   12412:	4105569b          	sraiw	a3,a0,0x10
   12416:	7c053bdb          	bfos	s7,a0,31,0
   1241a:	f6d767e3          	bltu	a4,a3,12388 <_nl_load_domain+0x448>
   1241e:	00892503          	lw	a0,8(s2)
   12422:	4b05                	c.li	s6,1
   12424:	189350ef          	jal	ra,47dac <__bswapsi2>
   12428:	02ad2423          	sw	a0,40(s10)
   1242c:	00c92503          	lw	a0,12(s2)
   12430:	17d350ef          	jal	ra,47dac <__bswapsi2>
   12434:	10a9075b          	lea.b.ze	a4,s2,a0
   12438:	01092503          	lw	a0,16(s2)
   1243c:	02ed3823          	sd	a4,48(s10)
   12440:	16d350ef          	jal	ra,47dac <__bswapsi2>
   12444:	10a9075b          	lea.b.ze	a4,s2,a0
   12448:	01492503          	lw	a0,20(s2)
   1244c:	02ed3c23          	sd	a4,56(s10)
   12450:	15d350ef          	jal	ra,47dac <__bswapsi2>
   12454:	00200713          	li	a4,2
   12458:	7c053ddb          	bfos	s11,a0,31,0
   1245c:	04ad2c23          	sw	a0,88(s10)
   12460:	edb772e3          	bgeu	a4,s11,12324 <_nl_load_domain+0x3e4>
   12464:	01892503          	lw	a0,24(s2)
   12468:	de120ab7          	lui	s5,0xde120
   1246c:	141350ef          	jal	ra,47dac <__bswapsi2>
   12470:	4b05                	c.li	s6,1
   12472:	7c05275b          	bfoz	a4,a0,31,0
   12476:	495a8a93          	addi	s5,s5,1173 # ffffffffde120495 <_end+0xffffffffde0b24bd>
   1247a:	b9a9                	c.j	120d4 <_nl_load_domain+0x194>
   1247c:	01200533          	add	a0,zero,s2
   12480:	7b40c0ef          	jal	ra,1ec34 <__free>
   12484:	ef1ff06f          	j	12374 <_nl_load_domain+0x434>
   12488:	10a906db          	lea.b.ze	a3,s2,a0
   1248c:	cfdff06f          	j	12188 <_nl_load_domain+0x248>
   12490:	0016c503          	lbu	a0,1(a3)
   12494:	4701                	c.li	a4,0
   12496:	d325615b          	bnec	a0,82,121b8 <_nl_load_domain+0x278>
   1249a:	0026c503          	lbu	a0,2(a3)
   1249e:	8776                	c.mv	a4,t4
   124a0:	d0956c5b          	bnec	a0,73,121b8 <_nl_load_domain+0x278>
   124a4:	0036c503          	lbu	a0,3(a3)
   124a8:	02000793          	li	a5,32
   124ac:	fa850f1b          	addiw	t5,a0,-88
   124b0:	0fff7f13          	andi	t5,t5,255
   124b4:	d1e7e2e3          	bltu	a5,t5,121b8 <_nl_load_domain+0x278>
   124b8:	0005a717          	auipc	a4,0x5a
   124bc:	45870713          	addi	a4,a4,1112 # 6c910 <_GLOBAL_OFFSET_TABLE_+0x28>
   124c0:	6318                	c.ld	a4,0(a4)
   124c2:	01e75f33          	srl	t5,a4,t5
   124c6:	8776                	c.mv	a4,t4
   124c8:	8e0f785b          	bbc	t5,0,121b8 <_nl_load_domain+0x278>
   124cc:	0046ce83          	lbu	t4,4(a3)
   124d0:	138ed6db          	beqc	t4,56,125fc <_nl_load_domain+0x6bc>
   124d4:	171ed4db          	beqc	t4,49,1263c <_nl_load_domain+0x6fc>
   124d8:	013ed4db          	beqc	t4,51,124e0 <_nl_load_domain+0x5a0>
   124dc:	5500006f          	j	12a2c <_nl_load_domain+0xaec>
   124e0:	0056ce83          	lbu	t4,5(a3)
   124e4:	4701                	c.li	a4,0
   124e6:	012ed4db          	beqc	t4,50,124ee <_nl_load_domain+0x5ae>
   124ea:	ccfff06f          	j	121b8 <_nl_load_domain+0x278>
   124ee:	0066c683          	lbu	a3,6(a3)
   124f2:	cc0693e3          	bnez	a3,121b8 <_nl_load_domain+0x278>
   124f6:	404564db          	bnec	a0,100,124fe <_nl_load_domain+0x5be>
   124fa:	5260006f          	j	12a20 <_nl_load_domain+0xae0>
   124fe:	409564db          	bnec	a0,105,12506 <_nl_load_domain+0x5c6>
   12502:	4a60006f          	j	129a8 <_nl_load_domain+0xa68>
   12506:	40f564db          	bnec	a0,111,1250e <_nl_load_domain+0x5ce>
   1250a:	4920006f          	j	1299c <_nl_load_domain+0xa5c>
   1250e:	415564db          	bnec	a0,117,12516 <_nl_load_domain+0x5d6>
   12512:	47e0006f          	j	12990 <_nl_load_domain+0xa50>
   12516:	418564db          	bnec	a0,120,1251e <_nl_load_domain+0x5de>
   1251a:	46a0006f          	j	12984 <_nl_load_domain+0xa44>
   1251e:	4185545b          	beqc	a0,88,12526 <_nl_load_domain+0x5e6>
   12522:	4ce0006f          	j	129f0 <_nl_load_domain+0xab0>
   12526:	0004a717          	auipc	a4,0x4a
   1252a:	05270713          	addi	a4,a4,82 # 5c578 <step3b_jumps.12768+0x1b0>
   1252e:	b169                	c.j	121b8 <_nl_load_domain+0x278>
   12530:	de1207b7          	lui	a5,0xde120
   12534:	49578793          	addi	a5,a5,1173 # ffffffffde120495 <_end+0xffffffffde0b24bd>
   12538:	eaf704e3          	beq	a4,a5,123e0 <_nl_load_domain+0x4a0>
   1253c:	85ce                	c.mv	a1,s3
   1253e:	854a                	c.mv	a0,s2
   12540:	7290f0ef          	jal	ra,22468 <__munmap>
   12544:	1641a783          	lw	a5,356(gp) # 6d274 <lock.10285+0x4>
   12548:	a79ff06f          	j	11fc0 <_nl_load_domain+0x80>
   1254c:	75c2                	c.ldsp	a1,48(sp)
   1254e:	de0583e3          	beqz	a1,12334 <_nl_load_domain+0x3f4>
   12552:	01c92c83          	lw	s9,28(s2)
   12556:	02096b03          	lwu	s6,32(s2)
   1255a:	b6e9                	c.j	12124 <_nl_load_domain+0x1e4>
   1255c:	65e2                	c.ldsp	a1,24(sp)
   1255e:	40058563          	beqz	a1,12968 <_nl_load_domain+0xa28>
   12562:	75e2                	c.ldsp	a1,56(sp)
   12564:	0005e683          	lwu	a3,0(a1)
   12568:	96ca                	c.add	a3,s2
   1256a:	4698                	c.lw	a4,8(a3)
   1256c:	0705                	c.addi	a4,1
   1256e:	00e03733          	snez	a4,a4
   12572:	b1cd                	c.j	12254 <_nl_load_domain+0x314>
   12574:	00813503          	ld	a0,8(sp)
   12578:	6bc0c0ef          	jal	ra,1ec34 <__free>
   1257c:	020d3503          	ld	a0,32(s10)
   12580:	de5ff06f          	j	12364 <_nl_load_domain+0x424>
   12584:	4585                	c.li	a1,1
   12586:	ec2e                	c.sdsp	a1,24(sp)
   12588:	ca1ff06f          	j	12228 <_nl_load_domain+0x2e8>
   1258c:	00468d93          	addi	s11,a3,4
   12590:	03c0006f          	j	125cc <_nl_load_domain+0x68c>
   12594:	02e13423          	sd	a4,40(sp)
   12598:	015350ef          	jal	ra,47dac <__bswapsi2>
   1259c:	7722                	c.ldsp	a4,40(sp)
   1259e:	10ab0b5b          	lea.b.ze	s6,s6,a0
   125a2:	853a                	c.mv	a0,a4
   125a4:	009350ef          	jal	ra,47dac <__bswapsi2>
   125a8:	7c05375b          	bfos	a4,a0,31,0
   125ac:	55fd                	c.li	a1,-1
   125ae:	cab707e3          	beq	a4,a1,1225c <_nl_load_domain+0x31c>
   125b2:	fd9771e3          	bgeu	a4,s9,12574 <_nl_load_domain+0x634>
   125b6:	65a2                	c.ldsp	a1,8(sp)
   125b8:	16e5875b          	lea.d.ze	a4,a1,a4
   125bc:	00073503          	ld	a0,0(a4)
   125c0:	cc0500e3          	beqz	a0,12280 <_nl_load_domain+0x340>
   125c4:	07d0d0ef          	jal	ra,1fe40 <strlen>
   125c8:	0da1                	c.addi	s11,8
   125ca:	9b2a                	c.add	s6,a0
   125cc:	65c2                	c.ldsp	a1,16(sp)
   125ce:	000da503          	lw	a0,0(s11)
   125d2:	004da703          	lw	a4,4(s11)
   125d6:	faba9fe3          	bne	s5,a1,12594 <_nl_load_domain+0x654>
   125da:	10ab0b5b          	lea.b.ze	s6,s6,a0
   125de:	b7f9                	c.j	125ac <_nl_load_domain+0x66c>
   125e0:	10a905db          	lea.b.ze	a1,s2,a0
   125e4:	f4ae                	c.sdsp	a1,104(sp)
   125e6:	7c0b255b          	bfoz	a0,s6,31,0
   125ea:	b109                	c.j	121ec <_nl_load_domain+0x2ac>
   125ec:	01200533          	add	a0,zero,s2
   125f0:	6440c0ef          	jal	ra,1ec34 <__free>
   125f4:	1641a783          	lw	a5,356(gp) # 6d274 <lock.10285+0x4>
   125f8:	9c9ff06f          	j	11fc0 <_nl_load_domain+0x80>
   125fc:	0056c683          	lbu	a3,5(a3)
   12600:	ba069ce3          	bnez	a3,121b8 <_nl_load_domain+0x278>
   12604:	744558db          	beqc	a0,100,12954 <_nl_load_domain+0xa14>
   12608:	409564db          	bnec	a0,105,12610 <_nl_load_domain+0x6d0>
   1260c:	4080006f          	j	12a14 <_nl_load_domain+0xad4>
   12610:	40f564db          	bnec	a0,111,12618 <_nl_load_domain+0x6d8>
   12614:	3ac0006f          	j	129c0 <_nl_load_domain+0xa80>
   12618:	415564db          	bnec	a0,117,12620 <_nl_load_domain+0x6e0>
   1261c:	3980006f          	j	129b4 <_nl_load_domain+0xa74>
   12620:	418564db          	bnec	a0,120,12628 <_nl_load_domain+0x6e8>
   12624:	3c00006f          	j	129e4 <_nl_load_domain+0xaa4>
   12628:	4185545b          	beqc	a0,88,12630 <_nl_load_domain+0x6f0>
   1262c:	3c40006f          	j	129f0 <_nl_load_domain+0xab0>
   12630:	0004a717          	auipc	a4,0x4a
   12634:	f4870713          	addi	a4,a4,-184 # 5c578 <step3b_jumps.12768+0x1b0>
   12638:	b81ff06f          	j	121b8 <_nl_load_domain+0x278>
   1263c:	0056ce83          	lbu	t4,5(a3)
   12640:	016ed4db          	beqc	t4,54,12648 <_nl_load_domain+0x708>
   12644:	b75ff06f          	j	121b8 <_nl_load_domain+0x278>
   12648:	0066c703          	lbu	a4,6(a3)
   1264c:	32071263          	bnez	a4,12970 <_nl_load_domain+0xa30>
   12650:	724554db          	beqc	a0,100,12978 <_nl_load_domain+0xa38>
   12654:	409564db          	bnec	a0,105,1265c <_nl_load_domain+0x71c>
   12658:	3800006f          	j	129d8 <_nl_load_domain+0xa98>
   1265c:	40f564db          	bnec	a0,111,12664 <_nl_load_domain+0x724>
   12660:	36c0006f          	j	129cc <_nl_load_domain+0xa8c>
   12664:	415564db          	bnec	a0,117,1266c <_nl_load_domain+0x72c>
   12668:	3980006f          	j	12a00 <_nl_load_domain+0xac0>
   1266c:	418564db          	bnec	a0,120,12674 <_nl_load_domain+0x734>
   12670:	3840006f          	j	129f4 <_nl_load_domain+0xab4>
   12674:	4185545b          	beqc	a0,88,1267c <_nl_load_domain+0x73c>
   12678:	3780006f          	j	129f0 <_nl_load_domain+0xab0>
   1267c:	0004a717          	auipc	a4,0x4a
   12680:	efc70713          	addi	a4,a4,-260 # 5c578 <step3b_jumps.12768+0x1b0>
   12684:	b35ff06f          	j	121b8 <_nl_load_domain+0x278>
   12688:	1635a55b          	bfoz	a0,a1,5,35
   1268c:	65c6                	c.ldsp	a1,80(sp)
   1268e:	952e                	c.add	a0,a1
   12690:	0d40c0ef          	jal	ra,1e764 <__libc_malloc>
   12694:	f02a                	c.sdsp	a0,32(sp)
   12696:	cc0505e3          	beqz	a0,12360 <_nl_load_domain+0x420>
   1269a:	6606                	c.ldsp	a2,64(sp)
   1269c:	e882                	c.sdsp	zero,80(sp)
   1269e:	12362ddb          	bfoz	s11,a2,4,35
   126a2:	7602                	c.ldsp	a2,32(sp)
   126a4:	ec02                	c.sdsp	zero,24(sp)
   126a6:	01b605b3          	add	a1,a2,s11
   126aa:	9dae                	c.add	s11,a1
   126ac:	f0ae                	c.sdsp	a1,96(sp)
   126ae:	75c6                	c.ldsp	a1,112(sp)
   126b0:	02cd3023          	sd	a2,32(s10)
   126b4:	00bd8b33          	add	s6,s11,a1
   126b8:	018d2603          	lw	a2,24(s10)
   126bc:	75a6                	c.ldsp	a1,104(sp)
   126be:	e832                	c.sdsp	a2,16(sp)
   126c0:	6646                	c.ldsp	a2,80(sp)
   126c2:	4c81                	c.li	s9,0
   126c4:	0cc585db          	lea.w	a1,a1,a2
   126c8:	02b13423          	sd	a1,40(sp)
   126cc:	6642                	c.ldsp	a2,16(sp)
   126ce:	12060563          	beqz	a2,127f8 <_nl_load_domain+0x8b8>
   126d2:	380c8d63          	beqz	s9,12a6c <_nl_load_domain+0xb2c>
   126d6:	6666                	c.ldsp	a2,88(sp)
   126d8:	00062503          	lw	a0,0(a2)
   126dc:	6d0350ef          	jal	ra,47dac <__bswapsi2>
   126e0:	10a90adb          	lea.b.ze	s5,s2,a0
   126e4:	008aa503          	lw	a0,8(s5)
   126e8:	6c4350ef          	jal	ra,47dac <__bswapsi2>
   126ec:	7c05375b          	bfos	a4,a0,31,0
   126f0:	00170713          	addi	a4,a4,1
   126f4:	00e03733          	snez	a4,a4
   126f8:	0c071c63          	bnez	a4,127d0 <_nl_load_domain+0x890>
   126fc:	101cee5b          	bnec	s9,1,12818 <_nl_load_domain+0x8d8>
   12700:	65e2                	c.ldsp	a1,24(sp)
   12702:	fc02                	c.sdsp	zero,56(sp)
   12704:	1235a75b          	bfoz	a4,a1,4,35
   12708:	7582                	c.ldsp	a1,32(sp)
   1270a:	00e58633          	add	a2,a1,a4
   1270e:	7586                	c.ldsp	a1,96(sp)
   12710:	f8b2                	c.sdsp	a2,112(sp)
   12712:	00e58633          	add	a2,a1,a4
   12716:	fcb2                	c.sdsp	a2,120(sp)
   12718:	6642                	c.ldsp	a2,16(sp)
   1271a:	10060163          	beqz	a2,1281c <_nl_load_domain+0x8dc>
   1271e:	75e2                	c.ldsp	a1,56(sp)
   12720:	34058a63          	beqz	a1,12a74 <_nl_load_domain+0xb34>
   12724:	65e6                	c.ldsp	a1,88(sp)
   12726:	7ce6                	c.ldsp	s9,120(sp)
   12728:	0005a503          	lw	a0,0(a1)
   1272c:	680350ef          	jal	ra,47dac <__bswapsi2>
   12730:	10a9075b          	lea.b.ze	a4,s2,a0
   12734:	4308                	c.lw	a0,0(a4)
   12736:	e4ba                	c.sdsp	a4,72(sp)
   12738:	674350ef          	jal	ra,47dac <__bswapsi2>
   1273c:	6726                	c.ldsp	a4,72(sp)
   1273e:	10a90adb          	lea.b.ze	s5,s2,a0
   12742:	4708                	c.lw	a0,8(a4)
   12744:	04e13423          	sd	a4,72(sp)
   12748:	664350ef          	jal	ra,47dac <__bswapsi2>
   1274c:	6726                	c.ldsp	a4,72(sp)
   1274e:	7c0536db          	bfos	a3,a0,31,0
   12752:	55fd                	c.li	a1,-1
   12754:	00472503          	lw	a0,4(a4)
   12758:	0eb69663          	bne	a3,a1,12844 <_nl_load_domain+0x904>
   1275c:	650350ef          	jal	ra,47dac <__bswapsi2>
   12760:	7c05255b          	bfoz	a0,a0,31,0
   12764:	00acb023          	sd	a0,0(s9)
   12768:	015cb423          	sd	s5,8(s9)
   1276c:	75e2                	c.ldsp	a1,56(sp)
   1276e:	3015e75b          	bnec	a1,1,12a7c <_nl_load_domain+0xb3c>
   12772:	65e2                	c.ldsp	a1,24(sp)
   12774:	2585                	c.addiw	a1,1
   12776:	ec2e                	c.sdsp	a1,24(sp)
   12778:	6646                	c.ldsp	a2,80(sp)
   1277a:	00160593          	addi	a1,a2,1
   1277e:	6666                	c.ldsp	a2,88(sp)
   12780:	e8ae                	c.sdsp	a1,80(sp)
   12782:	7c05b75b          	bfos	a4,a1,31,0
   12786:	00460593          	addi	a1,a2,4
   1278a:	ecae                	c.sdsp	a1,88(sp)
   1278c:	75c2                	c.ldsp	a1,48(sp)
   1278e:	f2b765e3          	bltu	a4,a1,126b8 <_nl_load_domain+0x778>
   12792:	6606                	c.ldsp	a2,64(sp)
   12794:	65e2                	c.ldsp	a1,24(sp)
   12796:	24b61d63          	bne	a2,a1,129f0 <_nl_load_domain+0xab0>
   1279a:	058d2c83          	lw	s9,88(s10)
   1279e:	8aee                	c.mv	s5,s11
   127a0:	00000b13          	li	s6,0
   127a4:	136c8863          	beq	s9,s6,128d4 <_nl_load_domain+0x994>
   127a8:	060d3703          	ld	a4,96(s10)
   127ac:	41ba86b3          	sub	a3,s5,s11
   127b0:	068d2603          	lw	a2,104(s10)
   127b4:	9736                	c.add	a4,a3
   127b6:	4308                	c.lw	a0,0(a4)
   127b8:	00060663          	beqz	a2,127c4 <_nl_load_domain+0x884>
   127bc:	5f0350ef          	jal	ra,47dac <__bswapsi2>
   127c0:	7c05355b          	bfos	a0,a0,31,0
   127c4:	00aaa023          	sw	a0,0(s5)
   127c8:	2b05                	c.addiw	s6,1
   127ca:	0a91                	c.addi	s5,4
   127cc:	fd9ff06f          	j	127a4 <_nl_load_domain+0x864>
   127d0:	0a91                	c.addi	s5,4
   127d2:	a039                	c.j	127e0 <_nl_load_domain+0x8a0>
   127d4:	65a2                	c.ldsp	a1,8(sp)
   127d6:	16a5855b          	lea.d.ze	a0,a1,a0
   127da:	6118                	c.ld	a4,0(a0)
   127dc:	df51                	c.beqz	a4,12778 <_nl_load_domain+0x838>
   127de:	0aa1                	c.addi	s5,8
   127e0:	65c2                	c.ldsp	a1,16(sp)
   127e2:	004aa503          	lw	a0,4(s5)
   127e6:	c589                	c.beqz	a1,127f0 <_nl_load_domain+0x8b0>
   127e8:	5c4350ef          	jal	ra,47dac <__bswapsi2>
   127ec:	7c05355b          	bfos	a0,a0,31,0
   127f0:	55fd                	c.li	a1,-1
   127f2:	feb511e3          	bne	a0,a1,127d4 <_nl_load_domain+0x894>
   127f6:	b719                	c.j	126fc <_nl_load_domain+0x7bc>
   127f8:	200c8a63          	beqz	s9,12a0c <_nl_load_domain+0xacc>
   127fc:	05813603          	ld	a2,88(sp)
   12800:	00066a83          	lwu	s5,0(a2)
   12804:	9aca                	c.add	s5,s2
   12806:	008aa703          	lw	a4,8(s5)
   1280a:	0705                	c.addi	a4,1
   1280c:	00e03733          	snez	a4,a4
   12810:	ee0706e3          	beqz	a4,126fc <_nl_load_domain+0x7bc>
   12814:	fbdff06f          	j	127d0 <_nl_load_domain+0x890>
   12818:	4c85                	c.li	s9,1
   1281a:	bd4d                	c.j	126cc <_nl_load_domain+0x78c>
   1281c:	7662                	c.ldsp	a2,56(sp)
   1281e:	26060563          	beqz	a2,12a88 <_nl_load_domain+0xb48>
   12822:	6666                	c.ldsp	a2,88(sp)
   12824:	7ce6                	c.ldsp	s9,120(sp)
   12826:	00066703          	lwu	a4,0(a2)
   1282a:	974a                	c.add	a4,s2
   1282c:	00076a83          	lwu	s5,0(a4)
   12830:	012a8ab3          	add	s5,s5,s2
   12834:	4714                	c.lw	a3,8(a4)
   12836:	567d                	c.li	a2,-1
   12838:	4348                	c.lw	a0,4(a4)
   1283a:	00c69563          	bne	a3,a2,12844 <_nl_load_domain+0x904>
   1283e:	7c05255b          	bfoz	a0,a0,31,0
   12842:	b70d                	c.j	12764 <_nl_load_domain+0x824>
   12844:	00470593          	addi	a1,a4,4
   12848:	04b13423          	sd	a1,72(sp)
   1284c:	016cb423          	sd	s6,8(s9)
   12850:	65a6                	c.ldsp	a1,72(sp)
   12852:	4190                	c.lw	a2,0(a1)
   12854:	41d8                	c.lw	a4,4(a1)
   12856:	65c2                	c.ldsp	a1,16(sp)
   12858:	c195                	c.beqz	a1,1287c <_nl_load_domain+0x93c>
   1285a:	8532                	c.mv	a0,a2
   1285c:	08e13423          	sd	a4,136(sp)
   12860:	54c350ef          	jal	ra,47dac <__bswapsi2>
   12864:	672a                	c.ldsp	a4,136(sp)
   12866:	7c05365b          	bfos	a2,a0,31,0
   1286a:	853a                	c.mv	a0,a4
   1286c:	08c13023          	sd	a2,128(sp)
   12870:	53c350ef          	jal	ra,47dac <__bswapsi2>
   12874:	08013603          	ld	a2,128(sp)
   12878:	7c05375b          	bfos	a4,a0,31,0
   1287c:	ce01                	c.beqz	a2,12894 <_nl_load_domain+0x954>
   1287e:	7c06265b          	bfoz	a2,a2,31,0
   12882:	85d6                	c.mv	a1,s5
   12884:	855a                	c.mv	a0,s6
   12886:	e13a                	c.sdsp	a4,128(sp)
   12888:	9b32                	c.add	s6,a2
   1288a:	9ab2                	c.add	s5,a2
   1288c:	4280e0ef          	jal	ra,20cb4 <memcpy>
   12890:	08013703          	ld	a4,128(sp)
   12894:	567d                	c.li	a2,-1
   12896:	02c70763          	beq	a4,a2,128c4 <_nl_load_domain+0x984>
   1289a:	6622                	c.ldsp	a2,8(sp)
   1289c:	16e6075b          	lea.d.ze	a4,a2,a4
   128a0:	630c                	c.ld	a1,0(a4)
   128a2:	6626                	c.ldsp	a2,72(sp)
   128a4:	852e                	c.mv	a0,a1
   128a6:	0621                	c.addi	a2,8
   128a8:	e4b2                	c.sdsp	a2,72(sp)
   128aa:	e52e                	c.sdsp	a1,136(sp)
   128ac:	5940d0ef          	jal	ra,1fe40 <strlen>
   128b0:	65aa                	c.ldsp	a1,136(sp)
   128b2:	862a                	c.mv	a2,a0
   128b4:	e12a                	c.sdsp	a0,128(sp)
   128b6:	855a                	c.mv	a0,s6
   128b8:	3fc0e0ef          	jal	ra,20cb4 <memcpy>
   128bc:	670a                	c.ldsp	a4,128(sp)
   128be:	9b3a                	c.add	s6,a4
   128c0:	f91ff06f          	j	12850 <_nl_load_domain+0x910>
   128c4:	008cb703          	ld	a4,8(s9)
   128c8:	40eb0733          	sub	a4,s6,a4
   128cc:	00ecb023          	sd	a4,0(s9)
   128d0:	e9dff06f          	j	1276c <_nl_load_domain+0x82c>
   128d4:	7602                	c.ldsp	a2,32(sp)
   128d6:	4a81                	c.li	s5,0
   128d8:	00860b13          	addi	s6,a2,8
   128dc:	000b3503          	ld	a0,0(s6)
   128e0:	2cd010ef          	jal	ra,143ac <__hash_string>
   128e4:	058d2603          	lw	a2,88(s10)
   128e8:	7c05355b          	bfos	a0,a0,31,0
   128ec:	02c5773b          	remuw	a4,a0,a2
   128f0:	ffe6069b          	addiw	a3,a2,-2
   128f4:	02d576bb          	remuw	a3,a0,a3
   128f8:	2685                	c.addiw	a3,1
   128fa:	40d608bb          	subw	a7,a2,a3
   128fe:	40c685bb          	subw	a1,a3,a2
   12902:	0001                	c.nop
   12904:	14ed865b          	lea.w.ze	a2,s11,a4
   12908:	4208                	c.lw	a0,0(a2)
   1290a:	c909                	c.beqz	a0,1291c <_nl_load_domain+0x9dc>
   1290c:	05176263          	bltu	a4,a7,12950 <_nl_load_domain+0xa10>
   12910:	9f2d                	c.addw	a4,a1
   12912:	14ed865b          	lea.w.ze	a2,s11,a4
   12916:	4208                	c.lw	a0,0(a2)
   12918:	fe051ae3          	bnez	a0,1290c <_nl_load_domain+0x9cc>
   1291c:	028d2703          	lw	a4,40(s10)
   12920:	65e2                	c.ldsp	a1,24(sp)
   12922:	2705                	c.addiw	a4,1
   12924:	0157073b          	addw	a4,a4,s5
   12928:	c218                	c.sw	a4,0(a2)
   1292a:	2a85                	c.addiw	s5,1
   1292c:	0b41                	c.addi	s6,16
   1292e:	fb5597e3          	bne	a1,s5,128dc <_nl_load_domain+0x99c>
   12932:	6662                	c.ldsp	a2,24(sp)
   12934:	7582                	c.ldsp	a1,32(sp)
   12936:	04cd2023          	sw	a2,64(s10)
   1293a:	7606                	c.ldsp	a2,96(sp)
   1293c:	04bd3423          	sd	a1,72(s10)
   12940:	04cd3823          	sd	a2,80(s10)
   12944:	07bd3023          	sd	s11,96(s10)
   12948:	060d2423          	sw	zero,104(s10)
   1294c:	959ff06f          	j	122a4 <_nl_load_domain+0x364>
   12950:	9f35                	c.addw	a4,a3
   12952:	bf4d                	c.j	12904 <_nl_load_domain+0x9c4>
   12954:	00053717          	auipc	a4,0x53
   12958:	b7c70713          	addi	a4,a4,-1156 # 654d0 <__PRETTY_FUNCTION__.11166+0x1b0>
   1295c:	85dff06f          	j	121b8 <_nl_load_domain+0x278>
   12960:	65a6                	c.ldsp	a1,72(sp)
   12962:	4188                	c.lw	a0,0(a1)
   12964:	8d5ff06f          	j	12238 <_nl_load_domain+0x2f8>
   12968:	65a6                	c.ldsp	a1,72(sp)
   1296a:	0005e683          	lwu	a3,0(a1)
   1296e:	beed                	c.j	12568 <_nl_load_domain+0x628>
   12970:	00000713          	li	a4,0
   12974:	845ff06f          	j	121b8 <_nl_load_domain+0x278>
   12978:	00053717          	auipc	a4,0x53
   1297c:	b5870713          	addi	a4,a4,-1192 # 654d0 <__PRETTY_FUNCTION__.11166+0x1b0>
   12980:	839ff06f          	j	121b8 <_nl_load_domain+0x278>
   12984:	0003a717          	auipc	a4,0x3a
   12988:	f1470713          	addi	a4,a4,-236 # 4c898 <_nl_default_default_domain+0x28>
   1298c:	82dff06f          	j	121b8 <_nl_load_domain+0x278>
   12990:	0003a717          	auipc	a4,0x3a
   12994:	f0070713          	addi	a4,a4,-256 # 4c890 <_nl_default_default_domain+0x20>
   12998:	821ff06f          	j	121b8 <_nl_load_domain+0x278>
   1299c:	0003a717          	auipc	a4,0x3a
   129a0:	eec70713          	addi	a4,a4,-276 # 4c888 <_nl_default_default_domain+0x18>
   129a4:	815ff06f          	j	121b8 <_nl_load_domain+0x278>
   129a8:	0003a717          	auipc	a4,0x3a
   129ac:	ed870713          	addi	a4,a4,-296 # 4c880 <_nl_default_default_domain+0x10>
   129b0:	809ff06f          	j	121b8 <_nl_load_domain+0x278>
   129b4:	0003a717          	auipc	a4,0x3a
   129b8:	edc70713          	addi	a4,a4,-292 # 4c890 <_nl_default_default_domain+0x20>
   129bc:	ffcff06f          	j	121b8 <_nl_load_domain+0x278>
   129c0:	0003a717          	auipc	a4,0x3a
   129c4:	ec870713          	addi	a4,a4,-312 # 4c888 <_nl_default_default_domain+0x18>
   129c8:	ff0ff06f          	j	121b8 <_nl_load_domain+0x278>
   129cc:	0003a717          	auipc	a4,0x3a
   129d0:	ebc70713          	addi	a4,a4,-324 # 4c888 <_nl_default_default_domain+0x18>
   129d4:	fe4ff06f          	j	121b8 <_nl_load_domain+0x278>
   129d8:	0003a717          	auipc	a4,0x3a
   129dc:	ea870713          	addi	a4,a4,-344 # 4c880 <_nl_default_default_domain+0x10>
   129e0:	fd8ff06f          	j	121b8 <_nl_load_domain+0x278>
   129e4:	0003a717          	auipc	a4,0x3a
   129e8:	eb470713          	addi	a4,a4,-332 # 4c898 <_nl_default_default_domain+0x28>
   129ec:	fccff06f          	j	121b8 <_nl_load_domain+0x278>
   129f0:	3dd010ef          	jal	ra,145cc <abort>
   129f4:	0003a717          	auipc	a4,0x3a
   129f8:	ea470713          	addi	a4,a4,-348 # 4c898 <_nl_default_default_domain+0x28>
   129fc:	fbcff06f          	j	121b8 <_nl_load_domain+0x278>
   12a00:	0003a717          	auipc	a4,0x3a
   12a04:	e9070713          	addi	a4,a4,-368 # 4c890 <_nl_default_default_domain+0x20>
   12a08:	fb0ff06f          	j	121b8 <_nl_load_domain+0x278>
   12a0c:	75a2                	c.ldsp	a1,40(sp)
   12a0e:	0005ea83          	lwu	s5,0(a1)
   12a12:	bbcd                	c.j	12804 <_nl_load_domain+0x8c4>
   12a14:	0003a717          	auipc	a4,0x3a
   12a18:	e6c70713          	addi	a4,a4,-404 # 4c880 <_nl_default_default_domain+0x10>
   12a1c:	f9cff06f          	j	121b8 <_nl_load_domain+0x278>
   12a20:	00053717          	auipc	a4,0x53
   12a24:	ab070713          	addi	a4,a4,-1360 # 654d0 <__PRETTY_FUNCTION__.11166+0x1b0>
   12a28:	f90ff06f          	j	121b8 <_nl_load_domain+0x278>
   12a2c:	0b6ee6db          	bnec	t4,54,12ad8 <_nl_load_domain+0xb98>
   12a30:	0056ce83          	lbu	t4,5(a3)
   12a34:	00000713          	li	a4,0
   12a38:	014ed4db          	beqc	t4,52,12a40 <_nl_load_domain+0xb00>
   12a3c:	f7cff06f          	j	121b8 <_nl_load_domain+0x278>
   12a40:	0066c683          	lbu	a3,6(a3)
   12a44:	f6069a63          	bnez	a3,121b8 <_nl_load_domain+0x278>
   12a48:	484552db          	beqc	a0,100,12acc <_nl_load_domain+0xb8c>
   12a4c:	46955adb          	beqc	a0,105,12ac0 <_nl_load_domain+0xb80>
   12a50:	46f552db          	beqc	a0,111,12ab4 <_nl_load_domain+0xb74>
   12a54:	45555adb          	beqc	a0,117,12aa8 <_nl_load_domain+0xb68>
   12a58:	458552db          	beqc	a0,120,12a9c <_nl_load_domain+0xb5c>
   12a5c:	f9856a5b          	bnec	a0,88,129f0 <_nl_load_domain+0xab0>
   12a60:	0003a717          	auipc	a4,0x3a
   12a64:	e5870713          	addi	a4,a4,-424 # 4c8b8 <_nl_default_default_domain+0x48>
   12a68:	f50ff06f          	j	121b8 <_nl_load_domain+0x278>
   12a6c:	75a2                	c.ldsp	a1,40(sp)
   12a6e:	4188                	c.lw	a0,0(a1)
   12a70:	c6dff06f          	j	126dc <_nl_load_domain+0x79c>
   12a74:	7622                	c.ldsp	a2,40(sp)
   12a76:	7cc6                	c.ldsp	s9,112(sp)
   12a78:	4208                	c.lw	a0,0(a2)
   12a7a:	b94d                	c.j	1272c <_nl_load_domain+0x7ec>
   12a7c:	018d2603          	lw	a2,24(s10)
   12a80:	4585                	c.li	a1,1
   12a82:	e832                	c.sdsp	a2,16(sp)
   12a84:	fc2e                	c.sdsp	a1,56(sp)
   12a86:	b949                	c.j	12718 <_nl_load_domain+0x7d8>
   12a88:	75a2                	c.ldsp	a1,40(sp)
   12a8a:	7cc6                	c.ldsp	s9,112(sp)
   12a8c:	0005e703          	lwu	a4,0(a1)
   12a90:	974a                	c.add	a4,s2
   12a92:	00076a83          	lwu	s5,0(a4)
   12a96:	9aca                	c.add	s5,s2
   12a98:	d9dff06f          	j	12834 <_nl_load_domain+0x8f4>
   12a9c:	0003a717          	auipc	a4,0x3a
   12aa0:	e0470713          	addi	a4,a4,-508 # 4c8a0 <_nl_default_default_domain+0x30>
   12aa4:	f14ff06f          	j	121b8 <_nl_load_domain+0x278>
   12aa8:	0003a717          	auipc	a4,0x3a
   12aac:	e0870713          	addi	a4,a4,-504 # 4c8b0 <_nl_default_default_domain+0x40>
   12ab0:	f08ff06f          	j	121b8 <_nl_load_domain+0x278>
   12ab4:	0003a717          	auipc	a4,0x3a
   12ab8:	e1c70713          	addi	a4,a4,-484 # 4c8d0 <_nl_default_default_domain+0x60>
   12abc:	efcff06f          	j	121b8 <_nl_load_domain+0x278>
   12ac0:	0003a717          	auipc	a4,0x3a
   12ac4:	e0870713          	addi	a4,a4,-504 # 4c8c8 <_nl_default_default_domain+0x58>
   12ac8:	ef0ff06f          	j	121b8 <_nl_load_domain+0x278>
   12acc:	0003a717          	auipc	a4,0x3a
   12ad0:	ddc70713          	addi	a4,a4,-548 # 4c8a8 <_nl_default_default_domain+0x38>
   12ad4:	ee4ff06f          	j	121b8 <_nl_load_domain+0x278>
   12ad8:	48cee45b          	bnec	t4,76,12b60 <_nl_load_domain+0xc20>
   12adc:	0056ce83          	lbu	t4,5(a3)
   12ae0:	4701                	c.li	a4,0
   12ae2:	405ed45b          	beqc	t4,69,12aea <_nl_load_domain+0xbaa>
   12ae6:	ed2ff06f          	j	121b8 <_nl_load_domain+0x278>
   12aea:	0066ce83          	lbu	t4,6(a3)
   12aee:	401ed45b          	beqc	t4,65,12af6 <_nl_load_domain+0xbb6>
   12af2:	ec6ff06f          	j	121b8 <_nl_load_domain+0x278>
   12af6:	0076ce83          	lbu	t4,7(a3)
   12afa:	413ed45b          	beqc	t4,83,12b02 <_nl_load_domain+0xbc2>
   12afe:	ebaff06f          	j	121b8 <_nl_load_domain+0x278>
   12b02:	0086ce83          	lbu	t4,8(a3)
   12b06:	414ed45b          	beqc	t4,84,12b0e <_nl_load_domain+0xbce>
   12b0a:	eaeff06f          	j	121b8 <_nl_load_domain+0x278>
   12b0e:	0096ce83          	lbu	t4,9(a3)
   12b12:	158ed9db          	beqc	t4,56,12c64 <_nl_load_domain+0xd24>
   12b16:	111edbdb          	beqc	t4,49,12c2c <_nl_load_domain+0xcec>
   12b1a:	0d3edddb          	beqc	t4,51,12bf4 <_nl_load_domain+0xcb4>
   12b1e:	016ed4db          	beqc	t4,54,12b26 <_nl_load_domain+0xbe6>
   12b22:	e96ff06f          	j	121b8 <_nl_load_domain+0x278>
   12b26:	00a6ce83          	lbu	t4,10(a3)
   12b2a:	4701                	c.li	a4,0
   12b2c:	014ed4db          	beqc	t4,52,12b34 <_nl_load_domain+0xbf4>
   12b30:	e88ff06f          	j	121b8 <_nl_load_domain+0x278>
   12b34:	00b6c683          	lbu	a3,11(a3)
   12b38:	e8069063          	bnez	a3,121b8 <_nl_load_domain+0x278>
   12b3c:	4a4556db          	beqc	a0,100,12be8 <_nl_load_domain+0xca8>
   12b40:	629550db          	beqc	a0,105,12d60 <_nl_load_domain+0xe20>
   12b44:	60f558db          	beqc	a0,111,12d54 <_nl_load_domain+0xe14>
   12b48:	635552db          	beqc	a0,117,12d6c <_nl_load_domain+0xe2c>
   12b4c:	498558db          	beqc	a0,120,12bdc <_nl_load_domain+0xc9c>
   12b50:	eb85605b          	bnec	a0,88,129f0 <_nl_load_domain+0xab0>
   12b54:	0003a717          	auipc	a4,0x3a
   12b58:	d6470713          	addi	a4,a4,-668 # 4c8b8 <_nl_default_default_domain+0x48>
   12b5c:	e5cff06f          	j	121b8 <_nl_load_domain+0x278>
   12b60:	726ee45b          	bnec	t4,70,12e88 <_nl_load_domain+0xf48>
   12b64:	0056ce83          	lbu	t4,5(a3)
   12b68:	4701                	c.li	a4,0
   12b6a:	401ed45b          	beqc	t4,65,12b72 <_nl_load_domain+0xc32>
   12b6e:	e4aff06f          	j	121b8 <_nl_load_domain+0x278>
   12b72:	0066ce83          	lbu	t4,6(a3)
   12b76:	413ed45b          	beqc	t4,83,12b7e <_nl_load_domain+0xc3e>
   12b7a:	e3eff06f          	j	121b8 <_nl_load_domain+0x278>
   12b7e:	0076ce83          	lbu	t4,7(a3)
   12b82:	414ed45b          	beqc	t4,84,12b8a <_nl_load_domain+0xc4a>
   12b86:	e32ff06f          	j	121b8 <_nl_load_domain+0x278>
   12b8a:	0086ce83          	lbu	t4,8(a3)
   12b8e:	2d8ed5db          	beqc	t4,56,12e58 <_nl_load_domain+0xf18>
   12b92:	251edfdb          	beqc	t4,49,12df0 <_nl_load_domain+0xeb0>
   12b96:	213edfdb          	beqc	t4,51,12db4 <_nl_load_domain+0xe74>
   12b9a:	016ed4db          	beqc	t4,54,12ba2 <_nl_load_domain+0xc62>
   12b9e:	e1aff06f          	j	121b8 <_nl_load_domain+0x278>
   12ba2:	0096ce83          	lbu	t4,9(a3)
   12ba6:	4701                	c.li	a4,0
   12ba8:	014ed4db          	beqc	t4,52,12bb0 <_nl_load_domain+0xc70>
   12bac:	e0cff06f          	j	121b8 <_nl_load_domain+0x278>
   12bb0:	00a6c683          	lbu	a3,10(a3)
   12bb4:	e0069263          	bnez	a3,121b8 <_nl_load_domain+0x278>
   12bb8:	5e4558db          	beqc	a0,100,12da8 <_nl_load_domain+0xe68>
   12bbc:	5e9550db          	beqc	a0,105,12d9c <_nl_load_domain+0xe5c>
   12bc0:	5cf558db          	beqc	a0,111,12d90 <_nl_load_domain+0xe50>
   12bc4:	5d5550db          	beqc	a0,117,12d84 <_nl_load_domain+0xe44>
   12bc8:	5b8558db          	beqc	a0,120,12d78 <_nl_load_domain+0xe38>
   12bcc:	e385625b          	bnec	a0,88,129f0 <_nl_load_domain+0xab0>
   12bd0:	0003a717          	auipc	a4,0x3a
   12bd4:	ce870713          	addi	a4,a4,-792 # 4c8b8 <_nl_default_default_domain+0x48>
   12bd8:	de0ff06f          	j	121b8 <_nl_load_domain+0x278>
   12bdc:	0003a717          	auipc	a4,0x3a
   12be0:	cc470713          	addi	a4,a4,-828 # 4c8a0 <_nl_default_default_domain+0x30>
   12be4:	dd4ff06f          	j	121b8 <_nl_load_domain+0x278>
   12be8:	0003a717          	auipc	a4,0x3a
   12bec:	cc070713          	addi	a4,a4,-832 # 4c8a8 <_nl_default_default_domain+0x38>
   12bf0:	dc8ff06f          	j	121b8 <_nl_load_domain+0x278>
   12bf4:	00a6ce83          	lbu	t4,10(a3)
   12bf8:	012ed4db          	beqc	t4,50,12c00 <_nl_load_domain+0xcc0>
   12bfc:	dbcff06f          	j	121b8 <_nl_load_domain+0x278>
   12c00:	00b6c703          	lbu	a4,11(a3)
   12c04:	14071463          	bnez	a4,12d4c <_nl_load_domain+0xe0c>
   12c08:	52455cdb          	beqc	a0,100,12d40 <_nl_load_domain+0xe00>
   12c0c:	529554db          	beqc	a0,105,12d34 <_nl_load_domain+0xdf4>
   12c10:	50f55cdb          	beqc	a0,111,12d28 <_nl_load_domain+0xde8>
   12c14:	4b5554db          	beqc	a0,117,12cbc <_nl_load_domain+0xd7c>
   12c18:	49855cdb          	beqc	a0,120,12cb0 <_nl_load_domain+0xd70>
   12c1c:	dd856a5b          	bnec	a0,88,129f0 <_nl_load_domain+0xab0>
   12c20:	0004a717          	auipc	a4,0x4a
   12c24:	95870713          	addi	a4,a4,-1704 # 5c578 <step3b_jumps.12768+0x1b0>
   12c28:	d90ff06f          	j	121b8 <_nl_load_domain+0x278>
   12c2c:	00a6ce83          	lbu	t4,10(a3)
   12c30:	016ed4db          	beqc	t4,54,12c38 <_nl_load_domain+0xcf8>
   12c34:	d84ff06f          	j	121b8 <_nl_load_domain+0x278>
   12c38:	00b6c703          	lbu	a4,11(a3)
   12c3c:	06071663          	bnez	a4,12ca8 <_nl_load_domain+0xd68>
   12c40:	44455edb          	beqc	a0,100,12c9c <_nl_load_domain+0xd5c>
   12c44:	489558db          	beqc	a0,105,12cd4 <_nl_load_domain+0xd94>
   12c48:	48f550db          	beqc	a0,111,12cc8 <_nl_load_domain+0xd88>
   12c4c:	49555adb          	beqc	a0,117,12ce0 <_nl_load_domain+0xda0>
   12c50:	458550db          	beqc	a0,120,12c90 <_nl_load_domain+0xd50>
   12c54:	d9856e5b          	bnec	a0,88,129f0 <_nl_load_domain+0xab0>
   12c58:	0004a717          	auipc	a4,0x4a
   12c5c:	92070713          	addi	a4,a4,-1760 # 5c578 <step3b_jumps.12768+0x1b0>
   12c60:	d58ff06f          	j	121b8 <_nl_load_domain+0x278>
   12c64:	00a6c683          	lbu	a3,10(a3)
   12c68:	d4069863          	bnez	a3,121b8 <_nl_load_domain+0x278>
   12c6c:	4a4558db          	beqc	a0,100,12d1c <_nl_load_domain+0xddc>
   12c70:	4a9550db          	beqc	a0,105,12d10 <_nl_load_domain+0xdd0>
   12c74:	48f558db          	beqc	a0,111,12d04 <_nl_load_domain+0xdc4>
   12c78:	495550db          	beqc	a0,117,12cf8 <_nl_load_domain+0xdb8>
   12c7c:	478558db          	beqc	a0,120,12cec <_nl_load_domain+0xdac>
   12c80:	d785685b          	bnec	a0,88,129f0 <_nl_load_domain+0xab0>
   12c84:	0004a717          	auipc	a4,0x4a
   12c88:	8f470713          	addi	a4,a4,-1804 # 5c578 <step3b_jumps.12768+0x1b0>
   12c8c:	d2cff06f          	j	121b8 <_nl_load_domain+0x278>
   12c90:	0003a717          	auipc	a4,0x3a
   12c94:	c0870713          	addi	a4,a4,-1016 # 4c898 <_nl_default_default_domain+0x28>
   12c98:	d20ff06f          	j	121b8 <_nl_load_domain+0x278>
   12c9c:	00053717          	auipc	a4,0x53
   12ca0:	83470713          	addi	a4,a4,-1996 # 654d0 <__PRETTY_FUNCTION__.11166+0x1b0>
   12ca4:	d14ff06f          	j	121b8 <_nl_load_domain+0x278>
   12ca8:	00000713          	li	a4,0
   12cac:	d0cff06f          	j	121b8 <_nl_load_domain+0x278>
   12cb0:	0003a717          	auipc	a4,0x3a
   12cb4:	be870713          	addi	a4,a4,-1048 # 4c898 <_nl_default_default_domain+0x28>
   12cb8:	d00ff06f          	j	121b8 <_nl_load_domain+0x278>
   12cbc:	0003a717          	auipc	a4,0x3a
   12cc0:	bd470713          	addi	a4,a4,-1068 # 4c890 <_nl_default_default_domain+0x20>
   12cc4:	cf4ff06f          	j	121b8 <_nl_load_domain+0x278>
   12cc8:	0003a717          	auipc	a4,0x3a
   12ccc:	bc070713          	addi	a4,a4,-1088 # 4c888 <_nl_default_default_domain+0x18>
   12cd0:	ce8ff06f          	j	121b8 <_nl_load_domain+0x278>
   12cd4:	0003a717          	auipc	a4,0x3a
   12cd8:	bac70713          	addi	a4,a4,-1108 # 4c880 <_nl_default_default_domain+0x10>
   12cdc:	cdcff06f          	j	121b8 <_nl_load_domain+0x278>
   12ce0:	0003a717          	auipc	a4,0x3a
   12ce4:	bb070713          	addi	a4,a4,-1104 # 4c890 <_nl_default_default_domain+0x20>
   12ce8:	cd0ff06f          	j	121b8 <_nl_load_domain+0x278>
   12cec:	0003a717          	auipc	a4,0x3a
   12cf0:	bac70713          	addi	a4,a4,-1108 # 4c898 <_nl_default_default_domain+0x28>
   12cf4:	cc4ff06f          	j	121b8 <_nl_load_domain+0x278>
   12cf8:	0003a717          	auipc	a4,0x3a
   12cfc:	b9870713          	addi	a4,a4,-1128 # 4c890 <_nl_default_default_domain+0x20>
   12d00:	cb8ff06f          	j	121b8 <_nl_load_domain+0x278>
   12d04:	0003a717          	auipc	a4,0x3a
   12d08:	b8470713          	addi	a4,a4,-1148 # 4c888 <_nl_default_default_domain+0x18>
   12d0c:	cacff06f          	j	121b8 <_nl_load_domain+0x278>
   12d10:	0003a717          	auipc	a4,0x3a
   12d14:	b7070713          	addi	a4,a4,-1168 # 4c880 <_nl_default_default_domain+0x10>
   12d18:	ca0ff06f          	j	121b8 <_nl_load_domain+0x278>
   12d1c:	00052717          	auipc	a4,0x52
   12d20:	7b470713          	addi	a4,a4,1972 # 654d0 <__PRETTY_FUNCTION__.11166+0x1b0>
   12d24:	c94ff06f          	j	121b8 <_nl_load_domain+0x278>
   12d28:	0003a717          	auipc	a4,0x3a
   12d2c:	b6070713          	addi	a4,a4,-1184 # 4c888 <_nl_default_default_domain+0x18>
   12d30:	c88ff06f          	j	121b8 <_nl_load_domain+0x278>
   12d34:	0003a717          	auipc	a4,0x3a
   12d38:	b4c70713          	addi	a4,a4,-1204 # 4c880 <_nl_default_default_domain+0x10>
   12d3c:	c7cff06f          	j	121b8 <_nl_load_domain+0x278>
   12d40:	00052717          	auipc	a4,0x52
   12d44:	79070713          	addi	a4,a4,1936 # 654d0 <__PRETTY_FUNCTION__.11166+0x1b0>
   12d48:	c70ff06f          	j	121b8 <_nl_load_domain+0x278>
   12d4c:	00000713          	li	a4,0
   12d50:	c68ff06f          	j	121b8 <_nl_load_domain+0x278>
   12d54:	0003a717          	auipc	a4,0x3a
   12d58:	b7c70713          	addi	a4,a4,-1156 # 4c8d0 <_nl_default_default_domain+0x60>
   12d5c:	c5cff06f          	j	121b8 <_nl_load_domain+0x278>
   12d60:	0003a717          	auipc	a4,0x3a
   12d64:	b6870713          	addi	a4,a4,-1176 # 4c8c8 <_nl_default_default_domain+0x58>
   12d68:	c50ff06f          	j	121b8 <_nl_load_domain+0x278>
   12d6c:	0003a717          	auipc	a4,0x3a
   12d70:	b4470713          	addi	a4,a4,-1212 # 4c8b0 <_nl_default_default_domain+0x40>
   12d74:	c44ff06f          	j	121b8 <_nl_load_domain+0x278>
   12d78:	0003a717          	auipc	a4,0x3a
   12d7c:	b2870713          	addi	a4,a4,-1240 # 4c8a0 <_nl_default_default_domain+0x30>
   12d80:	c38ff06f          	j	121b8 <_nl_load_domain+0x278>
   12d84:	0003a717          	auipc	a4,0x3a
   12d88:	b2c70713          	addi	a4,a4,-1236 # 4c8b0 <_nl_default_default_domain+0x40>
   12d8c:	c2cff06f          	j	121b8 <_nl_load_domain+0x278>
   12d90:	0003a717          	auipc	a4,0x3a
   12d94:	b4070713          	addi	a4,a4,-1216 # 4c8d0 <_nl_default_default_domain+0x60>
   12d98:	c20ff06f          	j	121b8 <_nl_load_domain+0x278>
   12d9c:	0003a717          	auipc	a4,0x3a
   12da0:	b2c70713          	addi	a4,a4,-1236 # 4c8c8 <_nl_default_default_domain+0x58>
   12da4:	c14ff06f          	j	121b8 <_nl_load_domain+0x278>
   12da8:	0003a717          	auipc	a4,0x3a
   12dac:	b0070713          	addi	a4,a4,-1280 # 4c8a8 <_nl_default_default_domain+0x38>
   12db0:	c08ff06f          	j	121b8 <_nl_load_domain+0x278>
   12db4:	0096ce83          	lbu	t4,9(a3)
   12db8:	012ed4db          	beqc	t4,50,12dc0 <_nl_load_domain+0xe80>
   12dbc:	bfcff06f          	j	121b8 <_nl_load_domain+0x278>
   12dc0:	00a6c703          	lbu	a4,10(a3)
   12dc4:	08071663          	bnez	a4,12e50 <_nl_load_domain+0xf10>
   12dc8:	46455edb          	beqc	a0,100,12e44 <_nl_load_domain+0xf04>
   12dcc:	629552db          	beqc	a0,105,12ff0 <_nl_load_domain+0x10b0>
   12dd0:	60f55adb          	beqc	a0,111,12fe4 <_nl_load_domain+0x10a4>
   12dd4:	475552db          	beqc	a0,117,12e38 <_nl_load_domain+0xef8>
   12dd8:	45855adb          	beqc	a0,120,12e2c <_nl_load_domain+0xeec>
   12ddc:	4185545b          	beqc	a0,88,12de4 <_nl_load_domain+0xea4>
   12de0:	c11ff06f          	j	129f0 <_nl_load_domain+0xab0>
   12de4:	0003a717          	auipc	a4,0x3a
   12de8:	ad470713          	addi	a4,a4,-1324 # 4c8b8 <_nl_default_default_domain+0x48>
   12dec:	bccff06f          	j	121b8 <_nl_load_domain+0x278>
   12df0:	0096ce83          	lbu	t4,9(a3)
   12df4:	016ed4db          	beqc	t4,54,12dfc <_nl_load_domain+0xebc>
   12df8:	bc0ff06f          	j	121b8 <_nl_load_domain+0x278>
   12dfc:	00a6c703          	lbu	a4,10(a3)
   12e00:	22071c63          	bnez	a4,13038 <_nl_load_domain+0x10f8>
   12e04:	624554db          	beqc	a0,100,1302c <_nl_load_domain+0x10ec>
   12e08:	60955cdb          	beqc	a0,105,13020 <_nl_load_domain+0x10e0>
   12e0c:	60f554db          	beqc	a0,111,13014 <_nl_load_domain+0x10d4>
   12e10:	5f555cdb          	beqc	a0,117,13008 <_nl_load_domain+0x10c8>
   12e14:	5f8554db          	beqc	a0,120,12ffc <_nl_load_domain+0x10bc>
   12e18:	4185545b          	beqc	a0,88,12e20 <_nl_load_domain+0xee0>
   12e1c:	bd5ff06f          	j	129f0 <_nl_load_domain+0xab0>
   12e20:	0003a717          	auipc	a4,0x3a
   12e24:	a9870713          	addi	a4,a4,-1384 # 4c8b8 <_nl_default_default_domain+0x48>
   12e28:	b90ff06f          	j	121b8 <_nl_load_domain+0x278>
   12e2c:	0003a717          	auipc	a4,0x3a
   12e30:	a7470713          	addi	a4,a4,-1420 # 4c8a0 <_nl_default_default_domain+0x30>
   12e34:	b84ff06f          	j	121b8 <_nl_load_domain+0x278>
   12e38:	0003a717          	auipc	a4,0x3a
   12e3c:	a7870713          	addi	a4,a4,-1416 # 4c8b0 <_nl_default_default_domain+0x40>
   12e40:	b78ff06f          	j	121b8 <_nl_load_domain+0x278>
   12e44:	0003a717          	auipc	a4,0x3a
   12e48:	a6470713          	addi	a4,a4,-1436 # 4c8a8 <_nl_default_default_domain+0x38>
   12e4c:	b6cff06f          	j	121b8 <_nl_load_domain+0x278>
   12e50:	00000713          	li	a4,0
   12e54:	b64ff06f          	j	121b8 <_nl_load_domain+0x278>
   12e58:	0096c683          	lbu	a3,9(a3)
   12e5c:	b4069e63          	bnez	a3,121b8 <_nl_load_domain+0x278>
   12e60:	52455adb          	beqc	a0,100,12f94 <_nl_load_domain+0x1054>
   12e64:	529552db          	beqc	a0,105,12f88 <_nl_load_domain+0x1048>
   12e68:	50f55adb          	beqc	a0,111,12f7c <_nl_load_domain+0x103c>
   12e6c:	515552db          	beqc	a0,117,12f70 <_nl_load_domain+0x1030>
   12e70:	478554db          	beqc	a0,120,12ed8 <_nl_load_domain+0xf98>
   12e74:	4185545b          	beqc	a0,88,12e7c <_nl_load_domain+0xf3c>
   12e78:	b79ff06f          	j	129f0 <_nl_load_domain+0xab0>
   12e7c:	00049717          	auipc	a4,0x49
   12e80:	6fc70713          	addi	a4,a4,1788 # 5c578 <step3b_jumps.12768+0x1b0>
   12e84:	b34ff06f          	j	121b8 <_nl_load_domain+0x278>
   12e88:	48deec5b          	bnec	t4,77,12f20 <_nl_load_domain+0xfe0>
   12e8c:	0056ce83          	lbu	t4,5(a3)
   12e90:	00000713          	li	a4,0
   12e94:	401ed45b          	beqc	t4,65,12e9c <_nl_load_domain+0xf5c>
   12e98:	b20ff06f          	j	121b8 <_nl_load_domain+0x278>
   12e9c:	0066ce83          	lbu	t4,6(a3)
   12ea0:	418ed45b          	beqc	t4,88,12ea8 <_nl_load_domain+0xf68>
   12ea4:	b14ff06f          	j	121b8 <_nl_load_domain+0x278>
   12ea8:	0076c683          	lbu	a3,7(a3)
   12eac:	b0069663          	bnez	a3,121b8 <_nl_load_domain+0x278>
   12eb0:	464552db          	beqc	a0,100,12f14 <_nl_load_domain+0xfd4>
   12eb4:	44955adb          	beqc	a0,105,12f08 <_nl_load_domain+0xfc8>
   12eb8:	44f552db          	beqc	a0,111,12efc <_nl_load_domain+0xfbc>
   12ebc:	43555adb          	beqc	a0,117,12ef0 <_nl_load_domain+0xfb0>
   12ec0:	438552db          	beqc	a0,120,12ee4 <_nl_load_domain+0xfa4>
   12ec4:	4185545b          	beqc	a0,88,12ecc <_nl_load_domain+0xf8c>
   12ec8:	b29ff06f          	j	129f0 <_nl_load_domain+0xab0>
   12ecc:	0003a717          	auipc	a4,0x3a
   12ed0:	9ec70713          	addi	a4,a4,-1556 # 4c8b8 <_nl_default_default_domain+0x48>
   12ed4:	ae4ff06f          	j	121b8 <_nl_load_domain+0x278>
   12ed8:	0003a717          	auipc	a4,0x3a
   12edc:	9c070713          	addi	a4,a4,-1600 # 4c898 <_nl_default_default_domain+0x28>
   12ee0:	ad8ff06f          	j	121b8 <_nl_load_domain+0x278>
   12ee4:	0003a717          	auipc	a4,0x3a
   12ee8:	9bc70713          	addi	a4,a4,-1604 # 4c8a0 <_nl_default_default_domain+0x30>
   12eec:	accff06f          	j	121b8 <_nl_load_domain+0x278>
   12ef0:	0003a717          	auipc	a4,0x3a
   12ef4:	9c070713          	addi	a4,a4,-1600 # 4c8b0 <_nl_default_default_domain+0x40>
   12ef8:	ac0ff06f          	j	121b8 <_nl_load_domain+0x278>
   12efc:	0003a717          	auipc	a4,0x3a
   12f00:	9d470713          	addi	a4,a4,-1580 # 4c8d0 <_nl_default_default_domain+0x60>
   12f04:	ab4ff06f          	j	121b8 <_nl_load_domain+0x278>
   12f08:	0003a717          	auipc	a4,0x3a
   12f0c:	9c070713          	addi	a4,a4,-1600 # 4c8c8 <_nl_default_default_domain+0x58>
   12f10:	aa8ff06f          	j	121b8 <_nl_load_domain+0x278>
   12f14:	0003a717          	auipc	a4,0x3a
   12f18:	99470713          	addi	a4,a4,-1644 # 4c8a8 <_nl_default_default_domain+0x38>
   12f1c:	a9cff06f          	j	121b8 <_nl_load_domain+0x278>
   12f20:	4b0eee5b          	bnec	t4,80,12fdc <_nl_load_domain+0x109c>
   12f24:	0056ce83          	lbu	t4,5(a3)
   12f28:	00000713          	li	a4,0
   12f2c:	414ed45b          	beqc	t4,84,12f34 <_nl_load_domain+0xff4>
   12f30:	a88ff06f          	j	121b8 <_nl_load_domain+0x278>
   12f34:	0066ce83          	lbu	t4,6(a3)
   12f38:	412ed45b          	beqc	t4,82,12f40 <_nl_load_domain+0x1000>
   12f3c:	a7cff06f          	j	121b8 <_nl_load_domain+0x278>
   12f40:	0076c683          	lbu	a3,7(a3)
   12f44:	a6069a63          	bnez	a3,121b8 <_nl_load_domain+0x278>
   12f48:	484554db          	beqc	a0,100,12fd0 <_nl_load_domain+0x1090>
   12f4c:	46955cdb          	beqc	a0,105,12fc4 <_nl_load_domain+0x1084>
   12f50:	46f554db          	beqc	a0,111,12fb8 <_nl_load_domain+0x1078>
   12f54:	45555cdb          	beqc	a0,117,12fac <_nl_load_domain+0x106c>
   12f58:	458554db          	beqc	a0,120,12fa0 <_nl_load_domain+0x1060>
   12f5c:	4185545b          	beqc	a0,88,12f64 <_nl_load_domain+0x1024>
   12f60:	a91ff06f          	j	129f0 <_nl_load_domain+0xab0>
   12f64:	0003a717          	auipc	a4,0x3a
   12f68:	95470713          	addi	a4,a4,-1708 # 4c8b8 <_nl_default_default_domain+0x48>
   12f6c:	a4cff06f          	j	121b8 <_nl_load_domain+0x278>
   12f70:	0003a717          	auipc	a4,0x3a
   12f74:	92070713          	addi	a4,a4,-1760 # 4c890 <_nl_default_default_domain+0x20>
   12f78:	a40ff06f          	j	121b8 <_nl_load_domain+0x278>
   12f7c:	0003a717          	auipc	a4,0x3a
   12f80:	90c70713          	addi	a4,a4,-1780 # 4c888 <_nl_default_default_domain+0x18>
   12f84:	a34ff06f          	j	121b8 <_nl_load_domain+0x278>
   12f88:	0003a717          	auipc	a4,0x3a
   12f8c:	8f870713          	addi	a4,a4,-1800 # 4c880 <_nl_default_default_domain+0x10>
   12f90:	a28ff06f          	j	121b8 <_nl_load_domain+0x278>
   12f94:	00052717          	auipc	a4,0x52
   12f98:	53c70713          	addi	a4,a4,1340 # 654d0 <__PRETTY_FUNCTION__.11166+0x1b0>
   12f9c:	a1cff06f          	j	121b8 <_nl_load_domain+0x278>
   12fa0:	0003a717          	auipc	a4,0x3a
   12fa4:	90070713          	addi	a4,a4,-1792 # 4c8a0 <_nl_default_default_domain+0x30>
   12fa8:	a10ff06f          	j	121b8 <_nl_load_domain+0x278>
   12fac:	0003a717          	auipc	a4,0x3a
   12fb0:	90470713          	addi	a4,a4,-1788 # 4c8b0 <_nl_default_default_domain+0x40>
   12fb4:	a04ff06f          	j	121b8 <_nl_load_domain+0x278>
   12fb8:	0003a717          	auipc	a4,0x3a
   12fbc:	91870713          	addi	a4,a4,-1768 # 4c8d0 <_nl_default_default_domain+0x60>
   12fc0:	9f8ff06f          	j	121b8 <_nl_load_domain+0x278>
   12fc4:	0003a717          	auipc	a4,0x3a
   12fc8:	90470713          	addi	a4,a4,-1788 # 4c8c8 <_nl_default_default_domain+0x58>
   12fcc:	9ecff06f          	j	121b8 <_nl_load_domain+0x278>
   12fd0:	0003a717          	auipc	a4,0x3a
   12fd4:	8d870713          	addi	a4,a4,-1832 # 4c8a8 <_nl_default_default_domain+0x38>
   12fd8:	9e0ff06f          	j	121b8 <_nl_load_domain+0x278>
   12fdc:	00000713          	li	a4,0
   12fe0:	9d8ff06f          	j	121b8 <_nl_load_domain+0x278>
   12fe4:	0003a717          	auipc	a4,0x3a
   12fe8:	8ec70713          	addi	a4,a4,-1812 # 4c8d0 <_nl_default_default_domain+0x60>
   12fec:	9ccff06f          	j	121b8 <_nl_load_domain+0x278>
   12ff0:	0003a717          	auipc	a4,0x3a
   12ff4:	8d870713          	addi	a4,a4,-1832 # 4c8c8 <_nl_default_default_domain+0x58>
   12ff8:	9c0ff06f          	j	121b8 <_nl_load_domain+0x278>
   12ffc:	0003a717          	auipc	a4,0x3a
   13000:	8a470713          	addi	a4,a4,-1884 # 4c8a0 <_nl_default_default_domain+0x30>
   13004:	9b4ff06f          	j	121b8 <_nl_load_domain+0x278>
   13008:	0003a717          	auipc	a4,0x3a
   1300c:	8a870713          	addi	a4,a4,-1880 # 4c8b0 <_nl_default_default_domain+0x40>
   13010:	9a8ff06f          	j	121b8 <_nl_load_domain+0x278>
   13014:	0003a717          	auipc	a4,0x3a
   13018:	8bc70713          	addi	a4,a4,-1860 # 4c8d0 <_nl_default_default_domain+0x60>
   1301c:	99cff06f          	j	121b8 <_nl_load_domain+0x278>
   13020:	0003a717          	auipc	a4,0x3a
   13024:	8a870713          	addi	a4,a4,-1880 # 4c8c8 <_nl_default_default_domain+0x58>
   13028:	990ff06f          	j	121b8 <_nl_load_domain+0x278>
   1302c:	0003a717          	auipc	a4,0x3a
   13030:	87c70713          	addi	a4,a4,-1924 # 4c8a8 <_nl_default_default_domain+0x38>
   13034:	984ff06f          	j	121b8 <_nl_load_domain+0x278>
   13038:	4701                	c.li	a4,0
   1303a:	97eff06f          	j	121b8 <_nl_load_domain+0x278>
	...

0000000000013040 <alias_compare>:
   13040:	618c                	c.ld	a1,0(a1)
   13042:	6108                	c.ld	a0,0(a0)
   13044:	00049617          	auipc	a2,0x49
   13048:	c9c60613          	addi	a2,a2,-868 # 5bce0 <_nl_C_locobj>
   1304c:	4390d06f          	j	20c84 <__strcasecmp_l>

0000000000013050 <read_alias_file>:
   13050:	dd010113          	addi	sp,sp,-560
   13054:	02c58793          	addi	a5,a1,44
   13058:	22113423          	sd	ra,552(sp)
   1305c:	22813023          	sd	s0,544(sp)
   13060:	20913c23          	sd	s1,536(sp)
   13064:	1c00                	c.addi4spn	s0,sp,560
   13066:	21413023          	sd	s4,512(sp)
   1306a:	9bc1                	c.andi	a5,-16
   1306c:	21213823          	sd	s2,528(sp)
   13070:	21313423          	sd	s3,520(sp)
   13074:	ffd6                	c.sdsp	s5,504(sp)
   13076:	fbda                	c.sdsp	s6,496(sp)
   13078:	f7de                	c.sdsp	s7,488(sp)
   1307a:	f3e2                	c.sdsp	s8,480(sp)
   1307c:	efe6                	c.sdsp	s9,472(sp)
   1307e:	ebea                	c.sdsp	s10,464(sp)
   13080:	e7ee                	c.sdsp	s11,456(sp)
   13082:	40f10133          	sub	sp,sp,a5
   13086:	848a                	c.mv	s1,sp
   13088:	862e                	c.mv	a2,a1
   1308a:	85aa                	c.mv	a1,a0
   1308c:	00900533          	add	a0,zero,s1
   13090:	3a90d0ef          	jal	ra,20c38 <__mempcpy>
   13094:	00e00613          	li	a2,14
   13098:	0003a597          	auipc	a1,0x3a
   1309c:	84858593          	addi	a1,a1,-1976 # 4c8e0 <_nl_default_default_domain+0x70>
   130a0:	4150d0ef          	jal	ra,20cb4 <memcpy>
   130a4:	0003a597          	auipc	a1,0x3a
   130a8:	83458593          	addi	a1,a1,-1996 # 4c8d8 <_nl_default_default_domain+0x68>
   130ac:	00900533          	add	a0,zero,s1
   130b0:	7ad020ef          	jal	ra,1605c <_IO_new_fopen>
   130b4:	4a01                	c.li	s4,0
   130b6:	0c050d63          	beqz	a0,13190 <read_alias_file+0x140>
   130ba:	4118                	c.lw	a4,0(a0)
   130bc:	77e1                	c.lui	a5,0xffff8
   130be:	17fd                	c.addi	a5,-1
   130c0:	8ff9                	c.and	a5,a4
   130c2:	66a1                	c.lui	a3,0x8
   130c4:	8fd5                	c.or	a5,a3
   130c6:	c11c                	c.sw	a5,0(a0)
   130c8:	892a                	c.mv	s2,a0
   130ca:	4a01                	c.li	s4,0
   130cc:	6e477e5b          	bbs	a4,4,133c8 <read_alias_file+0x378>
   130d0:	6a85                	c.lui	s5,0x1
   130d2:	a00a859b          	addiw	a1,s5,-1536
   130d6:	6b89                	c.lui	s7,0x2
   130d8:	deb41b23          	sh	a1,-522(s0)
   130dc:	01200633          	add	a2,zero,s2
   130e0:	19000593          	li	a1,400
   130e4:	e0040513          	addi	a0,s0,-512
   130e8:	364040ef          	jal	ra,1744c <__fgets_unlocked>
   130ec:	cd41                	c.beqz	a0,13184 <read_alias_file+0x134>
   130ee:	45a9                	c.li	a1,10
   130f0:	e0040513          	addi	a0,s0,-512
   130f4:	20d0c0ef          	jal	ra,1fb00 <strchr>
   130f8:	05023683          	ld	a3,80(tp) # 50 <__libc_tsd_CTYPE_B>
   130fc:	e0044703          	lbu	a4,-512(s0)
   13100:	8caa                	c.mv	s9,a0
   13102:	0ae687db          	lea.h	a5,a3,a4
   13106:	00079783          	lh	a5,0(a5) # ffffffffffff8000 <_end+0xfffffffffff8a028>
   1310a:	e0040493          	addi	s1,s0,-512
   1310e:	0177f7b3          	and	a5,a5,s7
   13112:	cb99                	c.beqz	a5,13128 <read_alias_file+0xd8>
   13114:	0485                	c.addi	s1,1
   13116:	0004c703          	lbu	a4,0(s1)
   1311a:	0ae687db          	lea.h	a5,a3,a4
   1311e:	00079783          	lh	a5,0(a5)
   13122:	0177f7b3          	and	a5,a5,s7
   13126:	f7fd                	c.bnez	a5,13114 <read_alias_file+0xc4>
   13128:	cb21                	c.beqz	a4,13178 <read_alias_file+0x128>
   1312a:	043757db          	beqc	a4,35,13178 <read_alias_file+0x128>
   1312e:	0014c603          	lbu	a2,1(s1)
   13132:	00148713          	addi	a4,s1,1
   13136:	0ac687db          	lea.h	a5,a3,a2
   1313a:	00079783          	lh	a5,0(a5)
   1313e:	0177f7b3          	and	a5,a5,s7
   13142:	ce09                	c.beqz	a2,1315c <read_alias_file+0x10c>
   13144:	16079263          	bnez	a5,132a8 <read_alias_file+0x258>
   13148:	0705                	c.addi	a4,1
   1314a:	00074603          	lbu	a2,0(a4)
   1314e:	0ac687db          	lea.h	a5,a3,a2
   13152:	00079783          	lh	a5,0(a5)
   13156:	0177f7b3          	and	a5,a5,s7
   1315a:	f66d                	c.bnez	a2,13144 <read_alias_file+0xf4>
   1315c:	8c3a                	c.mv	s8,a4
   1315e:	cf89                	c.beqz	a5,13178 <read_alias_file+0x128>
   13160:	0c05                	c.addi	s8,1
   13162:	000c4603          	lbu	a2,0(s8)
   13166:	0ac687db          	lea.h	a5,a3,a2
   1316a:	00079783          	lh	a5,0(a5)
   1316e:	0177f7b3          	and	a5,a5,s7
   13172:	f7fd                	c.bnez	a5,13160 <read_alias_file+0x110>
   13174:	06061a63          	bnez	a2,131e8 <read_alias_file+0x198>
   13178:	040c8c63          	beqz	s9,131d0 <read_alias_file+0x180>
   1317c:	00092783          	lw	a5,0(s2)
   13180:	b447fe5b          	bbc	a5,4,130dc <read_alias_file+0x8c>
   13184:	01200533          	add	a0,zero,s2
   13188:	2a9020ef          	jal	ra,15c30 <_IO_new_fclose>
   1318c:	180a1e63          	bnez	s4,13328 <read_alias_file+0x2d8>
   13190:	dd040113          	addi	sp,s0,-560
   13194:	22813083          	ld	ra,552(sp)
   13198:	8552                	c.mv	a0,s4
   1319a:	22013403          	ld	s0,544(sp)
   1319e:	21813483          	ld	s1,536(sp)
   131a2:	21013903          	ld	s2,528(sp)
   131a6:	20813983          	ld	s3,520(sp)
   131aa:	20013a03          	ld	s4,512(sp)
   131ae:	7afe                	c.ldsp	s5,504(sp)
   131b0:	7b5e                	c.ldsp	s6,496(sp)
   131b2:	7bbe                	c.ldsp	s7,488(sp)
   131b4:	7c1e                	c.ldsp	s8,480(sp)
   131b6:	6cfe                	c.ldsp	s9,472(sp)
   131b8:	6d5e                	c.ldsp	s10,464(sp)
   131ba:	6dbe                	c.ldsp	s11,456(sp)
   131bc:	23010113          	addi	sp,sp,560
   131c0:	00008067          	ret
   131c4:	e0040513          	addi	a0,s0,-512
   131c8:	1390c0ef          	jal	ra,1fb00 <strchr>
   131cc:	fa0518e3          	bnez	a0,1317c <read_alias_file+0x12c>
   131d0:	19000593          	li	a1,400
   131d4:	01200633          	add	a2,zero,s2
   131d8:	e0040513          	addi	a0,s0,-512
   131dc:	270040ef          	jal	ra,1744c <__fgets_unlocked>
   131e0:	45a9                	c.li	a1,10
   131e2:	f16d                	c.bnez	a0,131c4 <read_alias_file+0x174>
   131e4:	f99ff06f          	j	1317c <read_alias_file+0x12c>
   131e8:	001c4703          	lbu	a4,1(s8)
   131ec:	001c0613          	addi	a2,s8,1
   131f0:	c715                	c.beqz	a4,1321c <read_alias_file+0x1cc>
   131f2:	0ae687db          	lea.h	a5,a3,a4
   131f6:	a039                	c.j	13204 <read_alias_file+0x1b4>
   131f8:	0605                	c.addi	a2,1
   131fa:	00064703          	lbu	a4,0(a2)
   131fe:	0ae687db          	lea.h	a5,a3,a4
   13202:	cf09                	c.beqz	a4,1321c <read_alias_file+0x1cc>
   13204:	00079783          	lh	a5,0(a5)
   13208:	0177f7b3          	and	a5,a5,s7
   1320c:	fe0786e3          	beqz	a5,131f8 <read_alias_file+0x1a8>
   13210:	16a7625b          	bnec	a4,10,13374 <read_alias_file+0x324>
   13214:	df641583          	lh	a1,-522(s0)
   13218:	00b61023          	sh	a1,0(a2)
   1321c:	a501bd03          	ld	s10,-1456(gp) # 6cb60 <nmap>
   13220:	a481b783          	ld	a5,-1464(gp) # 6cb58 <maxmap>
   13224:	12fd7263          	bgeu	s10,a5,13348 <read_alias_file+0x2f8>
   13228:	00900533          	add	a0,zero,s1
   1322c:	4150c0ef          	jal	ra,1fe40 <strlen>
   13230:	00150613          	addi	a2,a0,1
   13234:	01800533          	add	a0,zero,s8
   13238:	dec43c23          	sd	a2,-520(s0)
   1323c:	4050c0ef          	jal	ra,1fe40 <strlen>
   13240:	df843603          	ld	a2,-520(s0)
   13244:	a601b303          	ld	t1,-1440(gp) # 6cb70 <string_space_act>
   13248:	00150793          	addi	a5,a0,1
   1324c:	00c30b33          	add	s6,t1,a2
   13250:	00fb0ab3          	add	s5,s6,a5
   13254:	a581b703          	ld	a4,-1448(gp) # 6cb68 <string_space_max>
   13258:	0005bd97          	auipc	s11,0x5b
   1325c:	d60dbd83          	ld	s11,-672(s11) # 6dfb8 <string_space>
   13260:	07576663          	bltu	a4,s5,132cc <read_alias_file+0x27c>
   13264:	0005b697          	auipc	a3,0x5b
   13268:	d4c6b683          	ld	a3,-692(a3) # 6dfb0 <map>
   1326c:	004d1713          	slli	a4,s10,0x4
   13270:	009005b3          	add	a1,zero,s1
   13274:	006d8533          	add	a0,s11,t1
   13278:	00e684b3          	add	s1,a3,a4
   1327c:	def43c23          	sd	a5,-520(s0)
   13280:	2350d0ef          	jal	ra,20cb4 <memcpy>
   13284:	df843783          	ld	a5,-520(s0)
   13288:	85e2                	c.mv	a1,s8
   1328a:	e088                	c.sd	a0,0(s1)
   1328c:	863e                	c.mv	a2,a5
   1328e:	016d8533          	add	a0,s11,s6
   13292:	0d05                	c.addi	s10,1
   13294:	2210d0ef          	jal	ra,20cb4 <memcpy>
   13298:	0a05                	c.addi	s4,1
   1329a:	a751b023          	sd	s5,-1440(gp) # 6cb70 <string_space_act>
   1329e:	a5a1b823          	sd	s10,-1456(gp) # 6cb60 <nmap>
   132a2:	e488                	c.sd	a0,8(s1)
   132a4:	ed5ff06f          	j	13178 <read_alias_file+0x128>
   132a8:	00174603          	lbu	a2,1(a4)
   132ac:	00070023          	sb	zero,0(a4)
   132b0:	0ac687db          	lea.h	a5,a3,a2
   132b4:	00079783          	lh	a5,0(a5)
   132b8:	00170c13          	addi	s8,a4,1
   132bc:	0177f7b3          	and	a5,a5,s7
   132c0:	ea0790e3          	bnez	a5,13160 <read_alias_file+0x110>
   132c4:	ea060ae3          	beqz	a2,13178 <read_alias_file+0x128>
   132c8:	f21ff06f          	j	131e8 <read_alias_file+0x198>
   132cc:	00f606b3          	add	a3,a2,a5
   132d0:	40000593          	li	a1,1024
   132d4:	0ab6ea63          	bltu	a3,a1,13388 <read_alias_file+0x338>
   132d8:	00e68e33          	add	t3,a3,a4
   132dc:	85f2                	c.mv	a1,t3
   132de:	856e                	c.mv	a0,s11
   132e0:	dcf43c23          	sd	a5,-552(s0)
   132e4:	dec43023          	sd	a2,-544(s0)
   132e8:	de643423          	sd	t1,-536(s0)
   132ec:	dfc43c23          	sd	t3,-520(s0)
   132f0:	2d50b0ef          	jal	ra,1edc4 <__libc_realloc>
   132f4:	e80508e3          	beqz	a0,13184 <read_alias_file+0x134>
   132f8:	0005b697          	auipc	a3,0x5b
   132fc:	cb86b683          	ld	a3,-840(a3) # 6dfb0 <map>
   13300:	004d1713          	slli	a4,s10,0x4
   13304:	df843e03          	ld	t3,-520(s0)
   13308:	de843303          	ld	t1,-536(s0)
   1330c:	de043603          	ld	a2,-544(s0)
   13310:	dd843783          	ld	a5,-552(s0)
   13314:	09b51463          	bne	a0,s11,1339c <read_alias_file+0x34c>
   13318:	0005b597          	auipc	a1,0x5b
   1331c:	caa5b023          	sd	a0,-864(a1) # 6dfb8 <string_space>
   13320:	a5c1bc23          	sd	t3,-1448(gp) # 6cb68 <string_space_max>
   13324:	8daa                	c.mv	s11,a0
   13326:	b7a9                	c.j	13270 <read_alias_file+0x220>
   13328:	00000697          	auipc	a3,0x0
   1332c:	d1868693          	addi	a3,a3,-744 # 13040 <alias_compare>
   13330:	01000613          	li	a2,16
   13334:	a501b583          	ld	a1,-1456(gp) # 6cb60 <nmap>
   13338:	0005b517          	auipc	a0,0x5b
   1333c:	c7853503          	ld	a0,-904(a0) # 6dfb0 <map>
   13340:	0d5010ef          	jal	ra,14c14 <qsort>
   13344:	e4dff06f          	j	13190 <read_alias_file+0x140>
   13348:	04079463          	bnez	a5,13390 <read_alias_file+0x340>
   1334c:	64000593          	li	a1,1600
   13350:	06400d93          	li	s11,100
   13354:	0005b517          	auipc	a0,0x5b
   13358:	c5c53503          	ld	a0,-932(a0) # 6dfb0 <map>
   1335c:	2690b0ef          	jal	ra,1edc4 <__libc_realloc>
   13360:	e20502e3          	beqz	a0,13184 <read_alias_file+0x134>
   13364:	0005b597          	auipc	a1,0x5b
   13368:	c4a5b623          	sd	a0,-948(a1) # 6dfb0 <map>
   1336c:	a5b1b423          	sd	s11,-1464(gp) # 6cb58 <maxmap>
   13370:	eb9ff06f          	j	13228 <read_alias_file+0x1d8>
   13374:	00060023          	sb	zero,0(a2)
   13378:	a501bd03          	ld	s10,-1456(gp) # 6cb60 <nmap>
   1337c:	a481b783          	ld	a5,-1464(gp) # 6cb58 <maxmap>
   13380:	eafd64e3          	bltu	s10,a5,13228 <read_alias_file+0x1d8>
   13384:	fc5ff06f          	j	13348 <read_alias_file+0x2f8>
   13388:	40000693          	li	a3,1024
   1338c:	f4dff06f          	j	132d8 <read_alias_file+0x288>
   13390:	00179d93          	slli	s11,a5,0x1
   13394:	00579593          	slli	a1,a5,0x5
   13398:	fbdff06f          	j	13354 <read_alias_file+0x304>
   1339c:	020d0a63          	beqz	s10,133d0 <read_alias_file+0x380>
   133a0:	41b50db3          	sub	s11,a0,s11
   133a4:	00d005b3          	add	a1,zero,a3
   133a8:	00e68fb3          	add	t6,a3,a4
   133ac:	0005bf03          	ld	t5,0(a1)
   133b0:	0085be83          	ld	t4,8(a1)
   133b4:	9f6e                	c.add	t5,s11
   133b6:	9eee                	c.add	t4,s11
   133b8:	01e5b023          	sd	t5,0(a1)
   133bc:	01d5b423          	sd	t4,8(a1)
   133c0:	05c1                	c.addi	a1,16
   133c2:	febf95e3          	bne	t6,a1,133ac <read_alias_file+0x35c>
   133c6:	bf89                	c.j	13318 <read_alias_file+0x2c8>
   133c8:	069020ef          	jal	ra,15c30 <_IO_new_fclose>
   133cc:	dc5ff06f          	j	13190 <read_alias_file+0x140>
   133d0:	4701                	c.li	a4,0
   133d2:	b799                	c.j	13318 <read_alias_file+0x2c8>

00000000000133d4 <_nl_expand_alias>:
   133d4:	715d                	c.addi16sp	sp,-80
   133d6:	f84a                	c.sdsp	s2,48(sp)
   133d8:	f44e                	c.sdsp	s3,40(sp)
   133da:	e486                	c.sdsp	ra,72(sp)
   133dc:	e0a2                	c.sdsp	s0,64(sp)
   133de:	fc26                	c.sdsp	s1,56(sp)
   133e0:	f052                	c.sdsp	s4,32(sp)
   133e2:	ec56                	c.sdsp	s5,24(sp)
   133e4:	e85a                	c.sdsp	s6,16(sp)
   133e6:	e45e                	c.sdsp	s7,8(sp)
   133e8:	892a                	c.mv	s2,a0
   133ea:	a6818993          	addi	s3,gp,-1432 # 6cb78 <lock>
   133ee:	4705                	c.li	a4,1
   133f0:	1009a7af          	lr.w	a5,(s3)
   133f4:	00079663          	bnez	a5,13400 <_nl_expand_alias+0x2c>
   133f8:	1ce9a4af          	sc.w.aq	s1,a4,(s3)
   133fc:	fe049ae3          	bnez	s1,133f0 <_nl_expand_alias+0x1c>
   13400:	7c07b7db          	bfos	a5,a5,31,0
   13404:	12079c63          	bnez	a5,1353c <_nl_expand_alias+0x168>
   13408:	a401b783          	ld	a5,-1472(gp) # 6cb50 <locale_alias_path.9354>
   1340c:	12078063          	beqz	a5,1352c <_nl_expand_alias+0x158>
   13410:	a501ba83          	ld	s5,-1456(gp) # 6cb60 <nmap>
   13414:	00049497          	auipc	s1,0x49
   13418:	8cc48493          	addi	s1,s1,-1844 # 5bce0 <_nl_C_locobj>
   1341c:	0a0a9063          	bnez	s5,134bc <_nl_expand_alias+0xe8>
   13420:	a401b603          	ld	a2,-1472(gp) # 6cb50 <locale_alias_path.9354>
   13424:	00064703          	lbu	a4,0(a2)
   13428:	4781                	c.li	a5,0
   1342a:	c339                	c.beqz	a4,13470 <_nl_expand_alias+0x9c>
   1342c:	00160793          	addi	a5,a2,1
   13430:	00c00533          	add	a0,zero,a2
   13434:	01a76adb          	bnec	a4,58,13448 <_nl_expand_alias+0x74>
   13438:	853e                	c.mv	a0,a5
   1343a:	0785                	c.addi	a5,1
   1343c:	fff7c703          	lbu	a4,-1(a5)
   13440:	bfa75cdb          	beqc	a4,58,13438 <_nl_expand_alias+0x64>
   13444:	862a                	c.mv	a2,a0
   13446:	c31d                	c.beqz	a4,1346c <_nl_expand_alias+0x98>
   13448:	00150793          	addi	a5,a0,1
   1344c:	0100006f          	j	1345c <_nl_expand_alias+0x88>
   13450:	00178693          	addi	a3,a5,1
   13454:	01a758db          	beqc	a4,58,13464 <_nl_expand_alias+0x90>
   13458:	00d007b3          	add	a5,zero,a3
   1345c:	0007c703          	lbu	a4,0(a5)
   13460:	863e                	c.mv	a2,a5
   13462:	f77d                	c.bnez	a4,13450 <_nl_expand_alias+0x7c>
   13464:	04f56063          	bltu	a0,a5,134a4 <_nl_expand_alias+0xd0>
   13468:	0007c703          	lbu	a4,0(a5)
   1346c:	4785                	c.li	a5,1
   1346e:	ff5d                	c.bnez	a4,1342c <_nl_expand_alias+0x58>
   13470:	0c079c63          	bnez	a5,13548 <_nl_expand_alias+0x174>
   13474:	4701                	c.li	a4,0
   13476:	4781                	c.li	a5,0
   13478:	84ba                	c.mv	s1,a4
   1347a:	0f50000f          	fence	iorw,ow
   1347e:	0899a4af          	amoswap.w	s1,s1,(s3)
   13482:	7c04b75b          	bfos	a4,s1,31,0
   13486:	4685                	c.li	a3,1
   13488:	08e6c663          	blt	a3,a4,13514 <_nl_expand_alias+0x140>
   1348c:	60a6                	c.ldsp	ra,72(sp)
   1348e:	6406                	c.ldsp	s0,64(sp)
   13490:	74e2                	c.ldsp	s1,56(sp)
   13492:	7942                	c.ldsp	s2,48(sp)
   13494:	79a2                	c.ldsp	s3,40(sp)
   13496:	7a02                	c.ldsp	s4,32(sp)
   13498:	6ae2                	c.ldsp	s5,24(sp)
   1349a:	6b42                	c.ldsp	s6,16(sp)
   1349c:	6ba2                	c.ldsp	s7,8(sp)
   1349e:	853e                	c.mv	a0,a5
   134a0:	6161                	c.addi16sp	sp,80
   134a2:	8082                	c.jr	ra
   134a4:	40a785bb          	subw	a1,a5,a0
   134a8:	a4f1b023          	sd	a5,-1472(gp) # 6cb50 <locale_alias_path.9354>
   134ac:	ba5ff0ef          	jal	ra,13050 <read_alias_file>
   134b0:	f60508e3          	beqz	a0,13420 <_nl_expand_alias+0x4c>
   134b4:	a501ba83          	ld	s5,-1456(gp) # 6cb60 <nmap>
   134b8:	f60a84e3          	beqz	s5,13420 <_nl_expand_alias+0x4c>
   134bc:	0005bb97          	auipc	s7,0x5b
   134c0:	af4bbb83          	ld	s7,-1292(s7) # 6dfb0 <map>
   134c4:	00000b13          	li	s6,0
   134c8:	016a8433          	add	s0,s5,s6
   134cc:	8005                	c.srli	s0,0x1
   134ce:	00441a13          	slli	s4,s0,0x4
   134d2:	9a5e                	c.add	s4,s7
   134d4:	000a3583          	ld	a1,0(s4)
   134d8:	8626                	c.mv	a2,s1
   134da:	854a                	c.mv	a0,s2
   134dc:	7a80d0ef          	jal	ra,20c84 <__strcasecmp_l>
   134e0:	00054863          	bltz	a0,134f0 <_nl_expand_alias+0x11c>
   134e4:	c911                	c.beqz	a0,134f8 <_nl_expand_alias+0x124>
   134e6:	00140b13          	addi	s6,s0,1
   134ea:	fd5b6fe3          	bltu	s6,s5,134c8 <_nl_expand_alias+0xf4>
   134ee:	bf0d                	c.j	13420 <_nl_expand_alias+0x4c>
   134f0:	8aa2                	c.mv	s5,s0
   134f2:	fd5b6be3          	bltu	s6,s5,134c8 <_nl_expand_alias+0xf4>
   134f6:	b72d                	c.j	13420 <_nl_expand_alias+0x4c>
   134f8:	4701                	c.li	a4,0
   134fa:	008a3783          	ld	a5,8(s4)
   134fe:	84ba                	c.mv	s1,a4
   13500:	0f50000f          	fence	iorw,ow
   13504:	0899a4af          	amoswap.w	s1,s1,(s3)
   13508:	7c04b75b          	bfos	a4,s1,31,0
   1350c:	00100693          	li	a3,1
   13510:	f6e6dee3          	bge	a3,a4,1348c <_nl_expand_alias+0xb8>
   13514:	06200893          	li	a7,98
   13518:	a6818513          	addi	a0,gp,-1432 # 6cb78 <lock>
   1351c:	08100593          	li	a1,129
   13520:	4605                	c.li	a2,1
   13522:	4681                	c.li	a3,0
   13524:	00000073          	ecall
   13528:	f65ff06f          	j	1348c <_nl_expand_alias+0xb8>
   1352c:	00039797          	auipc	a5,0x39
   13530:	32c78793          	addi	a5,a5,812 # 4c858 <_nl_default_dirname>
   13534:	a4f1b023          	sd	a5,-1472(gp) # 6cb50 <locale_alias_path.9354>
   13538:	ed9ff06f          	j	13410 <_nl_expand_alias+0x3c>
   1353c:	01300533          	add	a0,zero,s3
   13540:	43d0f0ef          	jal	ra,2317c <__lll_lock_wait_private>
   13544:	ec5ff06f          	j	13408 <_nl_expand_alias+0x34>
   13548:	a4c1b023          	sd	a2,-1472(gp) # 6cb50 <locale_alias_path.9354>
   1354c:	b725                	c.j	13474 <_nl_expand_alias+0xa0>
	...

0000000000013550 <_nl_make_l10nflist>:
   13550:	7131                	c.addi16sp	sp,-192
   13552:	f02a                	c.sdsp	a0,32(sp)
   13554:	853a                	c.mv	a0,a4
   13556:	f922                	c.sdsp	s0,176(sp)
   13558:	f526                	c.sdsp	s1,168(sp)
   1355a:	f14a                	c.sdsp	s2,160(sp)
   1355c:	84b2                	c.mv	s1,a2
   1355e:	ed4e                	c.sdsp	s3,152(sp)
   13560:	e952                	c.sdsp	s4,144(sp)
   13562:	e556                	c.sdsp	s5,136(sp)
   13564:	e15a                	c.sdsp	s6,128(sp)
   13566:	fcde                	c.sdsp	s7,120(sp)
   13568:	ecee                	c.sdsp	s11,88(sp)
   1356a:	8936                	c.mv	s2,a3
   1356c:	fd06                	c.sdsp	ra,184(sp)
   1356e:	f8e2                	c.sdsp	s8,112(sp)
   13570:	f4e6                	c.sdsp	s9,104(sp)
   13572:	f0ea                	c.sdsp	s10,96(sp)
   13574:	8a3a                	c.mv	s4,a4
   13576:	8b2e                	c.mv	s6,a1
   13578:	8dbe                	c.mv	s11,a5
   1357a:	e0be                	c.sdsp	a5,64(sp)
   1357c:	f442                	c.sdsp	a6,40(sp)
   1357e:	f846                	c.sdsp	a7,48(sp)
   13580:	0c10c0ef          	jal	ra,1fe40 <strlen>
   13584:	464e                	c.lwsp	a2,208(sp)
   13586:	00497993          	andi	s3,s2,4
   1358a:	7c09b9db          	bfos	s3,s3,31,0
   1358e:	e4b2                	c.sdsp	a2,72(sp)
   13590:	8aaa                	c.mv	s5,a0
   13592:	00248b93          	addi	s7,s1,2
   13596:	4401                	c.li	s0,0
   13598:	00098863          	beqz	s3,135a8 <_nl_make_l10nflist+0x58>
   1359c:	01b00533          	add	a0,zero,s11
   135a0:	0a10c0ef          	jal	ra,1fe40 <strlen>
   135a4:	00150413          	addi	s0,a0,1
   135a8:	00297793          	andi	a5,s2,2
   135ac:	7c07bddb          	bfos	s11,a5,31,0
   135b0:	9ade                	c.add	s5,s7
   135b2:	4b81                	c.li	s7,0
   135b4:	000d8863          	beqz	s11,135c4 <_nl_make_l10nflist+0x74>
   135b8:	02813503          	ld	a0,40(sp)
   135bc:	0850c0ef          	jal	ra,1fe40 <strlen>
   135c0:	00150b93          	addi	s7,a0,1
   135c4:	00197d13          	andi	s10,s2,1
   135c8:	9aa2                	c.add	s5,s0
   135ca:	4401                	c.li	s0,0
   135cc:	000d0863          	beqz	s10,135dc <_nl_make_l10nflist+0x8c>
   135d0:	03013503          	ld	a0,48(sp)
   135d4:	06d0c0ef          	jal	ra,1fe40 <strlen>
   135d8:	00150413          	addi	s0,a0,1
   135dc:	00897793          	andi	a5,s2,8
   135e0:	7c07b65b          	bfos	a2,a5,31,0
   135e4:	fc32                	c.sdsp	a2,56(sp)
   135e6:	9ade                	c.add	s5,s7
   135e8:	4c01                	c.li	s8,0
   135ea:	c619                	c.beqz	a2,135f8 <_nl_make_l10nflist+0xa8>
   135ec:	0c013503          	ld	a0,192(sp)
   135f0:	0510c0ef          	jal	ra,1fe40 <strlen>
   135f4:	00150c13          	addi	s8,a0,1
   135f8:	652e                	c.ldsp	a0,200(sp)
   135fa:	9456                	c.add	s0,s5
   135fc:	0450c0ef          	jal	ra,1fe40 <strlen>
   13600:	8baa                	c.mv	s7,a0
   13602:	01840533          	add	a0,s0,s8
   13606:	955e                	c.add	a0,s7
   13608:	15c0b0ef          	jal	ra,1e764 <__libc_malloc>
   1360c:	842a                	c.mv	s0,a0
   1360e:	2e050763          	beqz	a0,138fc <_nl_make_l10nflist+0x3ac>
   13612:	8626                	c.mv	a2,s1
   13614:	016005b3          	add	a1,zero,s6
   13618:	69c0d0ef          	jal	ra,20cb4 <memcpy>
   1361c:	cc95                	c.beqz	s1,13658 <_nl_make_l10nflist+0x108>
   1361e:	8c22                	c.mv	s8,s0
   13620:	01800533          	add	a0,zero,s8
   13624:	01d0c0ef          	jal	ra,1fe40 <strlen>
   13628:	8ca6                	c.mv	s9,s1
   1362a:	fff54693          	not	a3,a0
   1362e:	9cb6                	c.add	s9,a3
   13630:	03a00a93          	li	s5,58
   13634:	01850533          	add	a0,a0,s8
   13638:	020c8063          	beqz	s9,13658 <_nl_make_l10nflist+0x108>
   1363c:	00150c13          	addi	s8,a0,1
   13640:	01550023          	sb	s5,0(a0)
   13644:	01800533          	add	a0,zero,s8
   13648:	7f80c0ef          	jal	ra,1fe40 <strlen>
   1364c:	fff54693          	not	a3,a0
   13650:	9cb6                	c.add	s9,a3
   13652:	9562                	c.add	a0,s8
   13654:	fe0c94e3          	bnez	s9,1363c <_nl_make_l10nflist+0xec>
   13658:	009407b3          	add	a5,s0,s1
   1365c:	853e                	c.mv	a0,a5
   1365e:	02f00713          	li	a4,47
   13662:	85d2                	c.mv	a1,s4
   13664:	fee78fa3          	sb	a4,-1(a5)
   13668:	5e80d0ef          	jal	ra,20c50 <__stpcpy>
   1366c:	00a007b3          	add	a5,zero,a0
   13670:	1e099e63          	bnez	s3,1386c <_nl_make_l10nflist+0x31c>
   13674:	00178513          	addi	a0,a5,1
   13678:	1a0d9463          	bnez	s11,13820 <_nl_make_l10nflist+0x2d0>
   1367c:	1a0d1e63          	bnez	s10,13838 <_nl_make_l10nflist+0x2e8>
   13680:	03813703          	ld	a4,56(sp)
   13684:	1c071863          	bnez	a4,13854 <_nl_make_l10nflist+0x304>
   13688:	0c813583          	ld	a1,200(sp)
   1368c:	02f00713          	li	a4,47
   13690:	001b8613          	addi	a2,s7,1
   13694:	00e78023          	sb	a4,0(a5)
   13698:	61c0d0ef          	jal	ra,20cb4 <memcpy>
   1369c:	7702                	c.ldsp	a4,32(sp)
   1369e:	00073a83          	ld	s5,0(a4)
   136a2:	280a8163          	beqz	s5,13924 <_nl_make_l10nflist+0x3d4>
   136a6:	8cd6                	c.mv	s9,s5
   136a8:	00000993          	li	s3,0
   136ac:	000cb783          	ld	a5,0(s9)
   136b0:	85a2                	c.mv	a1,s0
   136b2:	853e                	c.mv	a0,a5
   136b4:	00078a63          	beqz	a5,136c8 <_nl_make_l10nflist+0x178>
   136b8:	5380c0ef          	jal	ra,1fbf0 <strcmp>
   136bc:	12050e63          	beqz	a0,137f8 <_nl_make_l10nflist+0x2a8>
   136c0:	00054863          	bltz	a0,136d0 <_nl_make_l10nflist+0x180>
   136c4:	019009b3          	add	s3,zero,s9
   136c8:	018cbc83          	ld	s9,24(s9)
   136cc:	fe0c90e3          	bnez	s9,136ac <_nl_make_l10nflist+0x15c>
   136d0:	6626                	c.ldsp	a2,72(sp)
   136d2:	12060163          	beqz	a2,137f4 <_nl_make_l10nflist+0x2a4>
   136d6:	22048763          	beqz	s1,13904 <_nl_make_l10nflist+0x3b4>
   136da:	8ba6                	c.mv	s7,s1
   136dc:	8d5a                	c.mv	s10,s6
   136de:	4c81                	c.li	s9,0
   136e0:	01a00533          	add	a0,zero,s10
   136e4:	75c0c0ef          	jal	ra,1fe40 <strlen>
   136e8:	fff54693          	not	a3,a0
   136ec:	9bb6                	c.add	s7,a3
   136ee:	0505                	c.addi	a0,1
   136f0:	9d2a                	c.add	s10,a0
   136f2:	0c85                	c.addi	s9,1
   136f4:	fe0b96e3          	bnez	s7,136e0 <_nl_make_l10nflist+0x190>
   136f8:	76f5                	c.lui	a3,0xffffd
   136fa:	55568693          	addi	a3,a3,1365 # ffffffffffffd555 <_end+0xfffffffffff8f57d>
   136fe:	4019579b          	sraiw	a5,s2,0x1
   13702:	8ff5                	c.and	a5,a3
   13704:	6695                	c.lui	a3,0x5
   13706:	55568693          	addi	a3,a3,1365 # 5555 <catch_hook+0x54fd>
   1370a:	00d976b3          	and	a3,s2,a3
   1370e:	9ebd                	c.addw	a3,a5
   13710:	767d                	c.lui	a2,0xfffff
   13712:	4026d79b          	sraiw	a5,a3,0x2
   13716:	33360613          	addi	a2,a2,819 # fffffffffffff333 <_end+0xfffffffffff9135b>
   1371a:	8e7d                	c.and	a2,a5
   1371c:	678d                	c.lui	a5,0x3
   1371e:	33378793          	addi	a5,a5,819 # 3333 <catch_hook+0x32db>
   13722:	8ff5                	c.and	a5,a3
   13724:	9fb1                	c.addw	a5,a2
   13726:	4047d69b          	sraiw	a3,a5,0x4
   1372a:	6505                	c.lui	a0,0x1
   1372c:	9fb5                	c.addw	a5,a3
   1372e:	f0f50513          	addi	a0,a0,-241 # f0f <catch_hook+0xeb7>
   13732:	8fe9                	c.and	a5,a0
   13734:	4087d51b          	sraiw	a0,a5,0x8
   13738:	9fa9                	c.addw	a5,a0
   1373a:	4505                	c.li	a0,1
   1373c:	00f5153b          	sllw	a0,a0,a5
   13740:	03950733          	mul	a4,a0,s9
   13744:	00570513          	addi	a0,a4,5
   13748:	00351513          	slli	a0,a0,0x3
   1374c:	0180b0ef          	jal	ra,1e764 <__libc_malloc>
   13750:	8caa                	c.mv	s9,a0
   13752:	1c050363          	beqz	a0,13918 <_nl_make_l10nflist+0x3c8>
   13756:	8da6                	c.mv	s11,s1
   13758:	8d5a                	c.mv	s10,s6
   1375a:	e100                	c.sd	s0,0(a0)
   1375c:	01a00533          	add	a0,zero,s10
   13760:	6e00c0ef          	jal	ra,1fe40 <strlen>
   13764:	fff54693          	not	a3,a0
   13768:	9db6                	c.add	s11,a3
   1376a:	0505                	c.addi	a0,1
   1376c:	9d2a                	c.add	s10,a0
   1376e:	0b85                	c.addi	s7,1
   13770:	fe0d96e3          	bnez	s11,1375c <_nl_make_l10nflist+0x20c>
   13774:	00100793          	li	a5,1
   13778:	161bd25b          	beqc	s7,1,138dc <_nl_make_l10nflist+0x38c>
   1377c:	00fca423          	sw	a5,8(s9)
   13780:	000cb823          	sd	zero,16(s9)
   13784:	16098663          	beqz	s3,138f0 <_nl_make_l10nflist+0x3a0>
   13788:	0189b783          	ld	a5,24(s3)
   1378c:	00fcbc23          	sd	a5,24(s9)
   13790:	0199bc23          	sd	s9,24(s3)
   13794:	18048a63          	beqz	s1,13928 <_nl_make_l10nflist+0x3d8>
   13798:	89a6                	c.mv	s3,s1
   1379a:	845a                	c.mv	s0,s6
   1379c:	00000a93          	li	s5,0
   137a0:	00800533          	add	a0,zero,s0
   137a4:	69c0c0ef          	jal	ra,1fe40 <strlen>
   137a8:	fff54793          	not	a5,a0
   137ac:	99be                	c.add	s3,a5
   137ae:	0505                	c.addi	a0,1
   137b0:	942a                	c.add	s0,a0
   137b2:	0a85                	c.addi	s5,1
   137b4:	fe0996e3          	bnez	s3,137a0 <_nl_make_l10nflist+0x250>
   137b8:	01200bb3          	add	s7,zero,s2
   137bc:	121ad65b          	beqc	s5,1,138e8 <_nl_make_l10nflist+0x398>
   137c0:	140bc063          	bltz	s7,13900 <_nl_make_l10nflist+0x3b0>
   137c4:	fff94913          	not	s2,s2
   137c8:	4401                	c.li	s0,0
   137ca:	009b0ab3          	add	s5,s6,s1
   137ce:	4d85                	c.li	s11,1
   137d0:	fff00993          	li	s3,-1
   137d4:	012bf7b3          	and	a5,s7,s2
   137d8:	0e8c8d5b          	lea.d	s10,s9,s0
   137dc:	4c01                	c.li	s8,0
   137de:	c3cd                	c.beqz	a5,13880 <_nl_make_l10nflist+0x330>
   137e0:	3bfd                	c.addiw	s7,-1
   137e2:	ff3b99e3          	bne	s7,s3,137d4 <_nl_make_l10nflist+0x284>
   137e6:	0001                	c.nop
   137e8:	0e8c845b          	lea.d	s0,s9,s0
   137ec:	02043023          	sd	zero,32(s0)
   137f0:	0100006f          	j	13800 <_nl_make_l10nflist+0x2b0>
   137f4:	00000c93          	li	s9,0
   137f8:	00800533          	add	a0,zero,s0
   137fc:	4380b0ef          	jal	ra,1ec34 <__free>
   13800:	70ea                	c.ldsp	ra,184(sp)
   13802:	744a                	c.ldsp	s0,176(sp)
   13804:	8566                	c.mv	a0,s9
   13806:	74aa                	c.ldsp	s1,168(sp)
   13808:	790a                	c.ldsp	s2,160(sp)
   1380a:	69ea                	c.ldsp	s3,152(sp)
   1380c:	6a4a                	c.ldsp	s4,144(sp)
   1380e:	6aaa                	c.ldsp	s5,136(sp)
   13810:	6b0a                	c.ldsp	s6,128(sp)
   13812:	7be6                	c.ldsp	s7,120(sp)
   13814:	7c46                	c.ldsp	s8,112(sp)
   13816:	7ca6                	c.ldsp	s9,104(sp)
   13818:	7d06                	c.ldsp	s10,96(sp)
   1381a:	6de6                	c.ldsp	s11,88(sp)
   1381c:	6129                	c.addi16sp	sp,192
   1381e:	8082                	c.jr	ra
   13820:	02813583          	ld	a1,40(sp)
   13824:	02e00713          	li	a4,46
   13828:	00e78023          	sb	a4,0(a5)
   1382c:	4240d0ef          	jal	ra,20c50 <__stpcpy>
   13830:	87aa                	c.mv	a5,a0
   13832:	0505                	c.addi	a0,1
   13834:	e40d06e3          	beqz	s10,13680 <_nl_make_l10nflist+0x130>
   13838:	03013583          	ld	a1,48(sp)
   1383c:	02e00713          	li	a4,46
   13840:	00e78023          	sb	a4,0(a5)
   13844:	40c0d0ef          	jal	ra,20c50 <__stpcpy>
   13848:	7762                	c.ldsp	a4,56(sp)
   1384a:	87aa                	c.mv	a5,a0
   1384c:	00150513          	addi	a0,a0,1
   13850:	e2070ce3          	beqz	a4,13688 <_nl_make_l10nflist+0x138>
   13854:	0c013583          	ld	a1,192(sp)
   13858:	04000713          	li	a4,64
   1385c:	00e78023          	sb	a4,0(a5)
   13860:	3f00d0ef          	jal	ra,20c50 <__stpcpy>
   13864:	87aa                	c.mv	a5,a0
   13866:	0505                	c.addi	a0,1
   13868:	e21ff06f          	j	13688 <_nl_make_l10nflist+0x138>
   1386c:	6586                	c.ldsp	a1,64(sp)
   1386e:	05f00713          	li	a4,95
   13872:	0505                	c.addi	a0,1
   13874:	00e78023          	sb	a4,0(a5)
   13878:	3d80d0ef          	jal	ra,20c50 <__stpcpy>
   1387c:	87aa                	c.mv	a5,a0
   1387e:	bbdd                	c.j	13674 <_nl_make_l10nflist+0x124>
   13880:	040c0a63          	beqz	s8,138d4 <_nl_make_l10nflist+0x384>
   13884:	01800533          	add	a0,zero,s8
   13888:	f55c7ce3          	bgeu	s8,s5,137e0 <_nl_make_l10nflist+0x290>
   1388c:	5b40c0ef          	jal	ra,1fe40 <strlen>
   13890:	0505                	c.addi	a0,1
   13892:	9c2a                	c.add	s8,a0
   13894:	f55c76e3          	bgeu	s8,s5,137e0 <_nl_make_l10nflist+0x290>
   13898:	f40c04e3          	beqz	s8,137e0 <_nl_make_l10nflist+0x290>
   1389c:	01800533          	add	a0,zero,s8
   138a0:	5a00c0ef          	jal	ra,1fe40 <strlen>
   138a4:	632e                	c.ldsp	t1,200(sp)
   138a6:	00150613          	addi	a2,a0,1
   138aa:	6e0e                	c.ldsp	t3,192(sp)
   138ac:	78c2                	c.ldsp	a7,48(sp)
   138ae:	7822                	c.ldsp	a6,40(sp)
   138b0:	6786                	c.ldsp	a5,64(sp)
   138b2:	7502                	c.ldsp	a0,32(sp)
   138b4:	8752                	c.mv	a4,s4
   138b6:	86de                	c.mv	a3,s7
   138b8:	85e2                	c.mv	a1,s8
   138ba:	0d21                	c.addi	s10,8
   138bc:	e86e                	c.sdsp	s11,16(sp)
   138be:	e41a                	c.sdsp	t1,8(sp)
   138c0:	01c13023          	sd	t3,0(sp)
   138c4:	c8dff0ef          	jal	ra,13550 <_nl_make_l10nflist>
   138c8:	00ad3c23          	sd	a0,24(s10)
   138cc:	00140413          	addi	s0,s0,1
   138d0:	fa0c1ae3          	bnez	s8,13884 <_nl_make_l10nflist+0x334>
   138d4:	8c5a                	c.mv	s8,s6
   138d6:	f0f9                	c.bnez	s1,1389c <_nl_make_l10nflist+0x34c>
   138d8:	f09ff06f          	j	137e0 <_nl_make_l10nflist+0x290>
   138dc:	00397793          	andi	a5,s2,3
   138e0:	17f5                	c.addi	a5,-3
   138e2:	0017b793          	seqz	a5,a5
   138e6:	bd59                	c.j	1377c <_nl_make_l10nflist+0x22c>
   138e8:	fff90b9b          	addiw	s7,s2,-1
   138ec:	ed5ff06f          	j	137c0 <_nl_make_l10nflist+0x270>
   138f0:	7602                	c.ldsp	a2,32(sp)
   138f2:	015cbc23          	sd	s5,24(s9)
   138f6:	01963023          	sd	s9,0(a2)
   138fa:	bd69                	c.j	13794 <_nl_make_l10nflist+0x244>
   138fc:	4c81                	c.li	s9,0
   138fe:	b709                	c.j	13800 <_nl_make_l10nflist+0x2b0>
   13900:	4401                	c.li	s0,0
   13902:	b5dd                	c.j	137e8 <_nl_make_l10nflist+0x298>
   13904:	02800513          	li	a0,40
   13908:	65d0a0ef          	jal	ra,1e764 <__libc_malloc>
   1390c:	8caa                	c.mv	s9,a0
   1390e:	c509                	c.beqz	a0,13918 <_nl_make_l10nflist+0x3c8>
   13910:	008cb023          	sd	s0,0(s9)
   13914:	4785                	c.li	a5,1
   13916:	b59d                	c.j	1377c <_nl_make_l10nflist+0x22c>
   13918:	00800533          	add	a0,zero,s0
   1391c:	3180b0ef          	jal	ra,1ec34 <__free>
   13920:	4c81                	c.li	s9,0
   13922:	bdf9                	c.j	13800 <_nl_make_l10nflist+0x2b0>
   13924:	4981                	c.li	s3,0
   13926:	b36d                	c.j	136d0 <_nl_make_l10nflist+0x180>
   13928:	8bca                	c.mv	s7,s2
   1392a:	bd59                	c.j	137c0 <_nl_make_l10nflist+0x270>

000000000001392c <_nl_normalize_codeset>:
   1392c:	1101                	c.addi	sp,-32
   1392e:	ec06                	c.sdsp	ra,24(sp)
   13930:	e822                	c.sdsp	s0,16(sp)
   13932:	e426                	c.sdsp	s1,8(sp)
   13934:	e04a                	c.sdsp	s2,0(sp)
   13936:	cde9                	c.beqz	a1,13a10 <_nl_normalize_codeset+0xe4>
   13938:	00a58633          	add	a2,a1,a0
   1393c:	892e                	c.mv	s2,a1
   1393e:	842a                	c.mv	s0,a0
   13940:	872a                	c.mv	a4,a0
   13942:	00048497          	auipc	s1,0x48
   13946:	4064b483          	ld	s1,1030(s1) # 5bd48 <_nl_C_locobj+0x68>
   1394a:	4805                	c.li	a6,1
   1394c:	4501                	c.li	a0,0
   1394e:	45a5                	c.li	a1,9
   13950:	00074783          	lbu	a5,0(a4)
   13954:	0705                	c.addi	a4,1
   13956:	0af486db          	lea.h	a3,s1,a5
   1395a:	00069683          	lh	a3,0(a3)
   1395e:	fd07879b          	addiw	a5,a5,-48
   13962:	0036f75b          	bbc	a3,3,13970 <_nl_normalize_codeset+0x44>
   13966:	0505                	c.addi	a0,1
   13968:	00f5f463          	bgeu	a1,a5,13970 <_nl_normalize_codeset+0x44>
   1396c:	00000813          	li	a6,0
   13970:	fee610e3          	bne	a2,a4,13950 <_nl_normalize_codeset+0x24>
   13974:	06081863          	bnez	a6,139e4 <_nl_normalize_codeset+0xb8>
   13978:	00150513          	addi	a0,a0,1
   1397c:	5e90a0ef          	jal	ra,1e764 <__libc_malloc>
   13980:	862a                	c.mv	a2,a0
   13982:	c53d                	c.beqz	a0,139f0 <_nl_normalize_codeset+0xc4>
   13984:	00048317          	auipc	t1,0x48
   13988:	3cc33303          	ld	t1,972(t1) # 5bd50 <_nl_C_locobj+0x70>
   1398c:	8722                	c.mv	a4,s0
   1398e:	4681                	c.li	a3,0
   13990:	4e25                	c.li	t3,9
   13992:	a819                	c.j	139a8 <_nl_normalize_codeset+0x7c>
   13994:	0008a783          	lw	a5,0(a7)
   13998:	00160613          	addi	a2,a2,1
   1399c:	fef60fa3          	sb	a5,-1(a2)
   139a0:	0685                	c.addi	a3,1
   139a2:	0705                	c.addi	a4,1
   139a4:	0326f863          	bgeu	a3,s2,139d4 <_nl_normalize_codeset+0xa8>
   139a8:	00074783          	lbu	a5,0(a4)
   139ac:	0af4885b          	lea.h	a6,s1,a5
   139b0:	00081803          	lh	a6,0(a6)
   139b4:	0cf308db          	lea.w	a7,t1,a5
   139b8:	fd07859b          	addiw	a1,a5,-48
   139bc:	fca87c5b          	bbs	a6,10,13994 <_nl_normalize_codeset+0x68>
   139c0:	febe60e3          	bltu	t3,a1,139a0 <_nl_normalize_codeset+0x74>
   139c4:	00f60023          	sb	a5,0(a2)
   139c8:	0685                	c.addi	a3,1
   139ca:	0605                	c.addi	a2,1
   139cc:	00170713          	addi	a4,a4,1
   139d0:	fd26ece3          	bltu	a3,s2,139a8 <_nl_normalize_codeset+0x7c>
   139d4:	00060023          	sb	zero,0(a2)
   139d8:	60e2                	c.ldsp	ra,24(sp)
   139da:	6442                	c.ldsp	s0,16(sp)
   139dc:	64a2                	c.ldsp	s1,8(sp)
   139de:	6902                	c.ldsp	s2,0(sp)
   139e0:	6105                	c.addi16sp	sp,32
   139e2:	8082                	c.jr	ra
   139e4:	00450513          	addi	a0,a0,4
   139e8:	57d0a0ef          	jal	ra,1e764 <__libc_malloc>
   139ec:	00051a63          	bnez	a0,13a00 <_nl_normalize_codeset+0xd4>
   139f0:	60e2                	c.ldsp	ra,24(sp)
   139f2:	6442                	c.ldsp	s0,16(sp)
   139f4:	64a2                	c.ldsp	s1,8(sp)
   139f6:	6902                	c.ldsp	s2,0(sp)
   139f8:	4501                	c.li	a0,0
   139fa:	6105                	c.addi16sp	sp,32
   139fc:	00008067          	ret
   13a00:	006f77b7          	lui	a5,0x6f7
   13a04:	3697879b          	addiw	a5,a5,873
   13a08:	c11c                	c.sw	a5,0(a0)
   13a0a:	00350613          	addi	a2,a0,3
   13a0e:	bf9d                	c.j	13984 <_nl_normalize_codeset+0x58>
   13a10:	00400513          	li	a0,4
   13a14:	5510a0ef          	jal	ra,1e764 <__libc_malloc>
   13a18:	dd61                	c.beqz	a0,139f0 <_nl_normalize_codeset+0xc4>
   13a1a:	006f77b7          	lui	a5,0x6f7
   13a1e:	3697879b          	addiw	a5,a5,873
   13a22:	c11c                	c.sw	a5,0(a0)
   13a24:	00350613          	addi	a2,a0,3
   13a28:	b775                	c.j	139d4 <_nl_normalize_codeset+0xa8>
	...

0000000000013a2c <_nl_explode_name>:
   13a2c:	715d                	c.addi16sp	sp,-80
   13a2e:	fc26                	c.sdsp	s1,56(sp)
   13a30:	e486                	c.sdsp	ra,72(sp)
   13a32:	e0a2                	c.sdsp	s0,64(sp)
   13a34:	f84a                	c.sdsp	s2,48(sp)
   13a36:	f44e                	c.sdsp	s3,40(sp)
   13a38:	f052                	c.sdsp	s4,32(sp)
   13a3a:	00063023          	sd	zero,0(a2)
   13a3e:	0006b023          	sd	zero,0(a3)
   13a42:	00073023          	sd	zero,0(a4)
   13a46:	0007b023          	sd	zero,0(a5) # 6f7000 <_end+0x689028>
   13a4a:	e188                	c.sd	a0,0(a1)
   13a4c:	00054583          	lbu	a1,0(a0)
   13a50:	84aa                	c.mv	s1,a0
   13a52:	0bf5f513          	andi	a0,a1,191
   13a56:	c52d                	c.beqz	a0,13ac0 <_nl_explode_name+0x94>
   13a58:	47f5d45b          	beqc	a1,95,13ac0 <_nl_explode_name+0x94>
   13a5c:	06e5d2db          	beqc	a1,46,13ac0 <_nl_explode_name+0x94>
   13a60:	8526                	c.mv	a0,s1
   13a62:	a809                	c.j	13a74 <_nl_explode_name+0x48>
   13a64:	49f5dc5b          	beqc	a1,95,13afc <_nl_explode_name+0xd0>
   13a68:	4a05de5b          	beqc	a1,64,13b24 <_nl_explode_name+0xf8>
   13a6c:	00800533          	add	a0,zero,s0
   13a70:	04e5d6db          	beqc	a1,46,13abc <_nl_explode_name+0x90>
   13a74:	00154583          	lbu	a1,1(a0)
   13a78:	00150413          	addi	s0,a0,1
   13a7c:	f5e5                	c.bnez	a1,13a64 <_nl_explode_name+0x38>
   13a7e:	4901                	c.li	s2,0
   13a80:	04848063          	beq	s1,s0,13ac0 <_nl_explode_name+0x94>
   13a84:	00073403          	ld	s0,0(a4)
   13a88:	629c                	c.ld	a5,0(a3)
   13a8a:	c799                	c.beqz	a5,13a98 <_nl_explode_name+0x6c>
   13a8c:	0007c783          	lbu	a5,0(a5)
   13a90:	00079463          	bnez	a5,13a98 <_nl_explode_name+0x6c>
   13a94:	ffb97913          	andi	s2,s2,-5
   13a98:	00040863          	beqz	s0,13aa8 <_nl_explode_name+0x7c>
   13a9c:	00044783          	lbu	a5,0(s0)
   13aa0:	00079463          	bnez	a5,13aa8 <_nl_explode_name+0x7c>
   13aa4:	ffd97913          	andi	s2,s2,-3
   13aa8:	60a6                	c.ldsp	ra,72(sp)
   13aaa:	6406                	c.ldsp	s0,64(sp)
   13aac:	854a                	c.mv	a0,s2
   13aae:	74e2                	c.ldsp	s1,56(sp)
   13ab0:	7942                	c.ldsp	s2,48(sp)
   13ab2:	79a2                	c.ldsp	s3,40(sp)
   13ab4:	7a02                	c.ldsp	s4,32(sp)
   13ab6:	6161                	c.addi16sp	sp,80
   13ab8:	00008067          	ret
   13abc:	08849263          	bne	s1,s0,13b40 <_nl_explode_name+0x114>
   13ac0:	8526                	c.mv	a0,s1
   13ac2:	e83a                	c.sdsp	a4,16(sp)
   13ac4:	e436                	c.sdsp	a3,8(sp)
   13ac6:	e032                	c.sdsp	a2,0(sp)
   13ac8:	3780c0ef          	jal	ra,1fe40 <strlen>
   13acc:	00a48433          	add	s0,s1,a0
   13ad0:	00044583          	lbu	a1,0(s0)
   13ad4:	4901                	c.li	s2,0
   13ad6:	6602                	c.ldsp	a2,0(sp)
   13ad8:	66a2                	c.ldsp	a3,8(sp)
   13ada:	6742                	c.ldsp	a4,16(sp)
   13adc:	fa05e45b          	bnec	a1,64,13a84 <_nl_explode_name+0x58>
   13ae0:	00140793          	addi	a5,s0,1
   13ae4:	00040023          	sb	zero,0(s0)
   13ae8:	e21c                	c.sd	a5,0(a2)
   13aea:	00144783          	lbu	a5,1(s0)
   13aee:	6300                	c.ld	s0,0(a4)
   13af0:	f8078ce3          	beqz	a5,13a88 <_nl_explode_name+0x5c>
   13af4:	00896913          	ori	s2,s2,8
   13af8:	f91ff06f          	j	13a88 <_nl_explode_name+0x5c>
   13afc:	fc8482e3          	beq	s1,s0,13ac0 <_nl_explode_name+0x94>
   13b00:	00040023          	sb	zero,0(s0)
   13b04:	0509                	c.addi	a0,2
   13b06:	e288                	c.sd	a0,0(a3)
   13b08:	00144583          	lbu	a1,1(s0)
   13b0c:	00058a63          	beqz	a1,13b20 <_nl_explode_name+0xf4>
   13b10:	0ae5d8db          	beqc	a1,46,13bc0 <_nl_explode_name+0x194>
   13b14:	4a05da5b          	beqc	a1,64,13bc8 <_nl_explode_name+0x19c>
   13b18:	0505                	c.addi	a0,1
   13b1a:	00054583          	lbu	a1,0(a0)
   13b1e:	f9ed                	c.bnez	a1,13b10 <_nl_explode_name+0xe4>
   13b20:	4911                	c.li	s2,4
   13b22:	b78d                	c.j	13a84 <_nl_explode_name+0x58>
   13b24:	4901                	c.li	s2,0
   13b26:	f8848de3          	beq	s1,s0,13ac0 <_nl_explode_name+0x94>
   13b2a:	00140793          	addi	a5,s0,1
   13b2e:	00040023          	sb	zero,0(s0)
   13b32:	e21c                	c.sd	a5,0(a2)
   13b34:	00144783          	lbu	a5,1(s0)
   13b38:	6300                	c.ld	s0,0(a4)
   13b3a:	ffcd                	c.bnez	a5,13af4 <_nl_explode_name+0xc8>
   13b3c:	f4dff06f          	j	13a88 <_nl_explode_name+0x5c>
   13b40:	4909                	c.li	s2,2
   13b42:	4981                	c.li	s3,0
   13b44:	00040023          	sb	zero,0(s0)
   13b48:	00140513          	addi	a0,s0,1
   13b4c:	e308                	c.sd	a0,0(a4)
   13b4e:	00144583          	lbu	a1,1(s0)
   13b52:	0bf5f813          	andi	a6,a1,191
   13b56:	08080f63          	beqz	a6,13bf4 <_nl_explode_name+0x1c8>
   13b5a:	84aa                	c.mv	s1,a0
   13b5c:	00c0006f          	j	13b68 <_nl_explode_name+0x13c>
   13b60:	4405dc5b          	beqc	a1,64,13bb8 <_nl_explode_name+0x18c>
   13b64:	008004b3          	add	s1,zero,s0
   13b68:	0014c583          	lbu	a1,1(s1)
   13b6c:	00148413          	addi	s0,s1,1
   13b70:	fe0598e3          	bnez	a1,13b60 <_nl_explode_name+0x134>
   13b74:	06850c63          	beq	a0,s0,13bec <_nl_explode_name+0x1c0>
   13b78:	40a405b3          	sub	a1,s0,a0
   13b7c:	ec3e                	c.sdsp	a5,24(sp)
   13b7e:	e03a                	c.sdsp	a4,0(sp)
   13b80:	e836                	c.sdsp	a3,16(sp)
   13b82:	e432                	c.sdsp	a2,8(sp)
   13b84:	da9ff0ef          	jal	ra,1392c <_nl_normalize_codeset>
   13b88:	67e2                	c.ldsp	a5,24(sp)
   13b8a:	8a2a                	c.mv	s4,a0
   13b8c:	e388                	c.sd	a0,0(a5)
   13b8e:	c53d                	c.beqz	a0,13bfc <_nl_explode_name+0x1d0>
   13b90:	6702                	c.ldsp	a4,0(sp)
   13b92:	85d2                	c.mv	a1,s4
   13b94:	00073503          	ld	a0,0(a4)
   13b98:	0580c0ef          	jal	ra,1fbf0 <strcmp>
   13b9c:	6702                	c.ldsp	a4,0(sp)
   13b9e:	6622                	c.ldsp	a2,8(sp)
   13ba0:	66c2                	c.ldsp	a3,16(sp)
   13ba2:	c51d                	c.beqz	a0,13bd0 <_nl_explode_name+0x1a4>
   13ba4:	0039e913          	ori	s2,s3,3
   13ba8:	7c09395b          	bfos	s2,s2,31,0
   13bac:	0014c583          	lbu	a1,1(s1)
   13bb0:	ec05ea5b          	bnec	a1,64,13a84 <_nl_explode_name+0x58>
   13bb4:	f2dff06f          	j	13ae0 <_nl_explode_name+0xb4>
   13bb8:	fc8510e3          	bne	a0,s0,13b78 <_nl_explode_name+0x14c>
   13bbc:	f25ff06f          	j	13ae0 <_nl_explode_name+0xb4>
   13bc0:	842a                	c.mv	s0,a0
   13bc2:	4919                	c.li	s2,6
   13bc4:	4991                	c.li	s3,4
   13bc6:	bfbd                	c.j	13b44 <_nl_explode_name+0x118>
   13bc8:	842a                	c.mv	s0,a0
   13bca:	4911                	c.li	s2,4
   13bcc:	f15ff06f          	j	13ae0 <_nl_explode_name+0xb4>
   13bd0:	8552                	c.mv	a0,s4
   13bd2:	e83a                	c.sdsp	a4,16(sp)
   13bd4:	e436                	c.sdsp	a3,8(sp)
   13bd6:	e032                	c.sdsp	a2,0(sp)
   13bd8:	05c0b0ef          	jal	ra,1ec34 <__free>
   13bdc:	0014c583          	lbu	a1,1(s1)
   13be0:	6602                	c.ldsp	a2,0(sp)
   13be2:	66a2                	c.ldsp	a3,8(sp)
   13be4:	6742                	c.ldsp	a4,16(sp)
   13be6:	e805ef5b          	bnec	a1,64,13a84 <_nl_explode_name+0x58>
   13bea:	bddd                	c.j	13ae0 <_nl_explode_name+0xb4>
   13bec:	629c                	c.ld	a5,0(a3)
   13bee:	e8079fe3          	bnez	a5,13a8c <_nl_explode_name+0x60>
   13bf2:	b56d                	c.j	13a9c <_nl_explode_name+0x70>
   13bf4:	842a                	c.mv	s0,a0
   13bf6:	e805e75b          	bnec	a1,64,13a84 <_nl_explode_name+0x58>
   13bfa:	b5dd                	c.j	13ae0 <_nl_explode_name+0xb4>
   13bfc:	597d                	c.li	s2,-1
   13bfe:	b56d                	c.j	13aa8 <_nl_explode_name+0x7c>

0000000000013c00 <__gettext_free_exp>:
   13c00:	c521                	c.beqz	a0,13c48 <__gettext_free_exp+0x48>
   13c02:	1141                	c.addi	sp,-16
   13c04:	e022                	c.sdsp	s0,0(sp)
   13c06:	e406                	c.sdsp	ra,8(sp)
   13c08:	842a                	c.mv	s0,a0
   13c0a:	411c                	c.lw	a5,0(a0)
   13c0c:	0227d05b          	beqc	a5,2,13c2c <__gettext_free_exp+0x2c>
   13c10:	0037da5b          	beqc	a5,3,13c24 <__gettext_free_exp+0x24>
   13c14:	0217d05b          	beqc	a5,1,13c34 <__gettext_free_exp+0x34>
   13c18:	8522                	c.mv	a0,s0
   13c1a:	6402                	c.ldsp	s0,0(sp)
   13c1c:	60a2                	c.ldsp	ra,8(sp)
   13c1e:	0141                	c.addi	sp,16
   13c20:	0140b06f          	j	1ec34 <__free>
   13c24:	01853503          	ld	a0,24(a0)
   13c28:	fd9ff0ef          	jal	ra,13c00 <__gettext_free_exp>
   13c2c:	01043503          	ld	a0,16(s0)
   13c30:	fd1ff0ef          	jal	ra,13c00 <__gettext_free_exp>
   13c34:	00843503          	ld	a0,8(s0)
   13c38:	fc9ff0ef          	jal	ra,13c00 <__gettext_free_exp>
   13c3c:	8522                	c.mv	a0,s0
   13c3e:	6402                	c.ldsp	s0,0(sp)
   13c40:	60a2                	c.ldsp	ra,8(sp)
   13c42:	0141                	c.addi	sp,16
   13c44:	7f10a06f          	j	1ec34 <__free>
   13c48:	00008067          	ret

0000000000013c4c <new_exp>:
   13c4c:	7139                	c.addi16sp	sp,-64
   13c4e:	f426                	c.sdsp	s1,40(sp)
   13c50:	fc06                	c.sdsp	ra,56(sp)
   13c52:	f822                	c.sdsp	s0,48(sp)
   13c54:	f04a                	c.sdsp	s2,32(sp)
   13c56:	ec4e                	c.sdsp	s3,24(sp)
   13c58:	e852                	c.sdsp	s4,16(sp)
   13c5a:	fff5049b          	addiw	s1,a0,-1
   13c5e:	57fd                	c.li	a5,-1
   13c60:	0af48463          	beq	s1,a5,13d08 <new_exp+0xbc>
   13c64:	00349993          	slli	s3,s1,0x3
   13c68:	01360433          	add	s0,a2,s3
   13c6c:	00043903          	ld	s2,0(s0)
   13c70:	06090663          	beqz	s2,13cdc <new_exp+0x90>
   13c74:	8a2a                	c.mv	s4,a0
   13c76:	8722                	c.mv	a4,s0
   13c78:	87a6                	c.mv	a5,s1
   13c7a:	567d                	c.li	a2,-1
   13c7c:	0080006f          	j	13c84 <new_exp+0x38>
   13c80:	6314                	c.ld	a3,0(a4)
   13c82:	cea9                	c.beqz	a3,13cdc <new_exp+0x90>
   13c84:	37fd                	c.addiw	a5,-1
   13c86:	1761                	c.addi	a4,-8
   13c88:	fec79ce3          	bne	a5,a2,13c80 <new_exp+0x34>
   13c8c:	02000513          	li	a0,32
   13c90:	00b13423          	sd	a1,8(sp)
   13c94:	2d10a0ef          	jal	ra,1e764 <__libc_malloc>
   13c98:	65a2                	c.ldsp	a1,8(sp)
   13c9a:	c129                	c.beqz	a0,13cdc <new_exp+0x90>
   13c9c:	00898793          	addi	a5,s3,8
   13ca0:	97aa                	c.add	a5,a0
   13ca2:	01452023          	sw	s4,0(a0)
   13ca6:	c14c                	c.sw	a1,4(a0)
   13ca8:	0127b023          	sd	s2,0(a5)
   13cac:	577d                	c.li	a4,-1
   13cae:	34fd                	c.addiw	s1,-1
   13cb0:	1461                	c.addi	s0,-8
   13cb2:	17e1                	c.addi	a5,-8
   13cb4:	04e48263          	beq	s1,a4,13cf8 <new_exp+0xac>
   13cb8:	00043903          	ld	s2,0(s0)
   13cbc:	34fd                	c.addiw	s1,-1
   13cbe:	0127b023          	sd	s2,0(a5)
   13cc2:	1461                	c.addi	s0,-8
   13cc4:	17e1                	c.addi	a5,-8
   13cc6:	fee499e3          	bne	s1,a4,13cb8 <new_exp+0x6c>
   13cca:	70e2                	c.ldsp	ra,56(sp)
   13ccc:	7442                	c.ldsp	s0,48(sp)
   13cce:	74a2                	c.ldsp	s1,40(sp)
   13cd0:	7902                	c.ldsp	s2,32(sp)
   13cd2:	69e2                	c.ldsp	s3,24(sp)
   13cd4:	6a42                	c.ldsp	s4,16(sp)
   13cd6:	6121                	c.addi16sp	sp,64
   13cd8:	00008067          	ret
   13cdc:	59fd                	c.li	s3,-1
   13cde:	a019                	c.j	13ce4 <new_exp+0x98>
   13ce0:	00043903          	ld	s2,0(s0)
   13ce4:	854a                	c.mv	a0,s2
   13ce6:	34fd                	c.addiw	s1,-1
   13ce8:	f19ff0ef          	jal	ra,13c00 <__gettext_free_exp>
   13cec:	ff840413          	addi	s0,s0,-8
   13cf0:	ff3498e3          	bne	s1,s3,13ce0 <new_exp+0x94>
   13cf4:	00000513          	li	a0,0
   13cf8:	70e2                	c.ldsp	ra,56(sp)
   13cfa:	7442                	c.ldsp	s0,48(sp)
   13cfc:	74a2                	c.ldsp	s1,40(sp)
   13cfe:	7902                	c.ldsp	s2,32(sp)
   13d00:	69e2                	c.ldsp	s3,24(sp)
   13d02:	6a42                	c.ldsp	s4,16(sp)
   13d04:	6121                	c.addi16sp	sp,64
   13d06:	8082                	c.jr	ra
   13d08:	02000513          	li	a0,32
   13d0c:	00b13423          	sd	a1,8(sp)
   13d10:	2550a0ef          	jal	ra,1e764 <__libc_malloc>
   13d14:	65a2                	c.ldsp	a1,8(sp)
   13d16:	dd79                	c.beqz	a0,13cf4 <new_exp+0xa8>
   13d18:	00052023          	sw	zero,0(a0)
   13d1c:	c14c                	c.sw	a1,4(a0)
   13d1e:	bfe9                	c.j	13cf8 <new_exp+0xac>

0000000000013d20 <__gettextparse>:
   13d20:	81010113          	addi	sp,sp,-2032
   13d24:	7e813023          	sd	s0,2016(sp)
   13d28:	7c913c23          	sd	s1,2008(sp)
   13d2c:	7d313423          	sd	s3,1992(sp)
   13d30:	7d413023          	sd	s4,1984(sp)
   13d34:	7b613823          	sd	s6,1968(sp)
   13d38:	7b713423          	sd	s7,1960(sp)
   13d3c:	7b813023          	sd	s8,1952(sp)
   13d40:	79913c23          	sd	s9,1944(sp)
   13d44:	79a13823          	sd	s10,1936(sp)
   13d48:	79b13423          	sd	s11,1928(sp)
   13d4c:	7e113423          	sd	ra,2024(sp)
   13d50:	7d213823          	sd	s2,2000(sp)
   13d54:	7b513c23          	sd	s5,1976(sp)
   13d58:	7135                	c.addi16sp	sp,-160
   13d5a:	05010a13          	addi	s4,sp,80
   13d5e:	5bfd                	c.li	s7,-1
   13d60:	1384                	c.addi4spn	s1,sp,480
   13d62:	020b9693          	slli	a3,s7,0x20
   13d66:	4b01                	c.li	s6,0
   13d68:	59f9                	c.li	s3,-2
   13d6a:	0c800c13          	li	s8,200
   13d6e:	8452                	c.mv	s0,s4
   13d70:	8dd2                	c.mv	s11,s4
   13d72:	00039c97          	auipc	s9,0x39
   13d76:	daec8c93          	addi	s9,s9,-594 # 4cb20 <yypact>
   13d7a:	03600d13          	li	s10,54
   13d7e:	ec2a                	c.sdsp	a0,24(sp)
   13d80:	04011823          	sh	zero,80(sp)
   13d84:	e802                	c.sdsp	zero,16(sp)
   13d86:	e426                	c.sdsp	s1,8(sp)
   13d88:	02d13023          	sd	a3,32(sp)
   13d8c:	016c8733          	add	a4,s9,s6
   13d90:	00070703          	lb	a4,0(a4)
   13d94:	5659                	c.li	a2,-10
   13d96:	853a                	c.mv	a0,a4
   13d98:	02c70663          	beq	a4,a2,13dc4 <__gettextparse+0xa4>
   13d9c:	ffe00613          	li	a2,-2
   13da0:	1ec98e63          	beq	s3,a2,13f9c <__gettextparse+0x27c>
   13da4:	23305e63          	blez	s3,13fe0 <__gettextparse+0x2c0>
   13da8:	013c8733          	add	a4,s9,s3
   13dac:	0d074603          	lbu	a2,208(a4)
   13db0:	00c5073b          	addw	a4,a0,a2
   13db4:	00ed6863          	bltu	s10,a4,13dc4 <__gettextparse+0xa4>
   13db8:	01970733          	add	a4,a4,s9
   13dbc:	02070583          	lb	a1,32(a4)
   13dc0:	20c58263          	beq	a1,a2,13fc4 <__gettextparse+0x2a4>
   13dc4:	016c8733          	add	a4,s9,s6
   13dc8:	09074703          	lbu	a4,144(a4)
   13dcc:	7c0735db          	bfos	a1,a4,31,0
   13dd0:	c595                	c.beqz	a1,13dfc <__gettextparse+0xdc>
   13dd2:	00bc87b3          	add	a5,s9,a1
   13dd6:	0b07c783          	lbu	a5,176(a5)
   13dda:	4605                	c.li	a2,1
   13ddc:	9e1d                	c.subw	a2,a5
   13dde:	0ec4865b          	lea.d	a2,s1,a2
   13de2:	4e35                	c.li	t3,13
   13de4:	6208                	c.ld	a0,0(a2)
   13de6:	30ee6f63          	bltu	t3,a4,14104 <__gettextparse+0x3e4>
   13dea:	00039617          	auipc	a2,0x39
   13dee:	b0660613          	addi	a2,a2,-1274 # 4c8f0 <_nl_default_default_domain+0x80>
   13df2:	0ce6075b          	lea.w	a4,a2,a4
   13df6:	4318                	c.lw	a4,0(a4)
   13df8:	9732                	c.add	a4,a2
   13dfa:	8702                	c.jr	a4
   13dfc:	01013683          	ld	a3,16(sp)
   13e00:	0a36d05b          	beqc	a3,3,13ea0 <__gettextparse+0x180>
   13e04:	ff600613          	li	a2,-10
   13e08:	016c87b3          	add	a5,s9,s6
   13e0c:	00078703          	lb	a4,0(a5)
   13e10:	00c70c63          	beq	a4,a2,13e28 <__gettextparse+0x108>
   13e14:	0017079b          	addiw	a5,a4,1
   13e18:	00fd6863          	bltu	s10,a5,13e28 <__gettextparse+0x108>
   13e1c:	019787b3          	add	a5,a5,s9
   13e20:	0207c703          	lbu	a4,32(a5)
   13e24:	00175a5b          	beqc	a4,1,13e38 <__gettextparse+0x118>
   13e28:	03b40463          	beq	s0,s11,13e50 <__gettextparse+0x130>
   13e2c:	1479                	c.addi	s0,-2
   13e2e:	14e1                	c.addi	s1,-8
   13e30:	00041b03          	lh	s6,0(s0)
   13e34:	fd5ff06f          	j	13e08 <__gettextparse+0xe8>
   13e38:	0587cb03          	lbu	s6,88(a5)
   13e3c:	fe0b06e3          	beqz	s6,13e28 <__gettextparse+0x108>
   13e40:	76a2                	c.ldsp	a3,40(sp)
   13e42:	85a2                	c.mv	a1,s0
   13e44:	e494                	c.sd	a3,8(s1)
   13e46:	468d                	c.li	a3,3
   13e48:	04a1                	c.addi	s1,8
   13e4a:	e836                	c.sdsp	a3,16(sp)
   13e4c:	0a80006f          	j	13ef4 <__gettextparse+0x1d4>
   13e50:	00100493          	li	s1,1
   13e54:	01440663          	beq	s0,s4,13e60 <__gettextparse+0x140>
   13e58:	00800533          	add	a0,zero,s0
   13e5c:	5d90a0ef          	jal	ra,1ec34 <__free>
   13e60:	610d                	c.addi16sp	sp,160
   13e62:	7e813083          	ld	ra,2024(sp)
   13e66:	8526                	c.mv	a0,s1
   13e68:	7e013403          	ld	s0,2016(sp)
   13e6c:	7d813483          	ld	s1,2008(sp)
   13e70:	7d013903          	ld	s2,2000(sp)
   13e74:	7c813983          	ld	s3,1992(sp)
   13e78:	7c013a03          	ld	s4,1984(sp)
   13e7c:	7b813a83          	ld	s5,1976(sp)
   13e80:	7b013b03          	ld	s6,1968(sp)
   13e84:	7a813b83          	ld	s7,1960(sp)
   13e88:	7a013c03          	ld	s8,1952(sp)
   13e8c:	79813c83          	ld	s9,1944(sp)
   13e90:	79013d03          	ld	s10,1936(sp)
   13e94:	78813d83          	ld	s11,1928(sp)
   13e98:	7f010113          	addi	sp,sp,2032
   13e9c:	00008067          	ret
   13ea0:	23305663          	blez	s3,140cc <__gettextparse+0x3ac>
   13ea4:	59f9                	c.li	s3,-2
   13ea6:	bfb9                	c.j	13e04 <__gettextparse+0xe4>
   13ea8:	ff84a583          	lw	a1,-8(s1)
   13eac:	609c                	c.ld	a5,0(s1)
   13eae:	ff04b703          	ld	a4,-16(s1)
   13eb2:	1830                	c.addi4spn	a2,sp,56
   13eb4:	4509                	c.li	a0,2
   13eb6:	fc3a                	c.sdsp	a4,56(sp)
   13eb8:	04f13023          	sd	a5,64(sp)
   13ebc:	d91ff0ef          	jal	ra,13c4c <new_exp>
   13ec0:	5b7d                	c.li	s6,-1
   13ec2:	fe848713          	addi	a4,s1,-24
   13ec6:	ffa40593          	addi	a1,s0,-6
   13eca:	4e09                	c.li	t3,2
   13ecc:	00059603          	lh	a2,0(a1)
   13ed0:	e708                	c.sd	a0,8(a4)
   13ed2:	016607bb          	addw	a5,a2,s6
   13ed6:	00870493          	addi	s1,a4,8
   13eda:	00fd6763          	bltu	s10,a5,13ee8 <__gettextparse+0x1c8>
   13ede:	97e6                	c.add	a5,s9
   13ee0:	02078703          	lb	a4,32(a5)
   13ee4:	1ec70063          	beq	a4,a2,140c4 <__gettextparse+0x3a4>
   13ee8:	8c018693          	addi	a3,gp,-1856 # 6c9d0 <yydefgoto>
   13eec:	01c687b3          	add	a5,a3,t3
   13ef0:	00078b03          	lb	s6,0(a5)
   13ef4:	001c1613          	slli	a2,s8,0x1
   13ef8:	ffe60713          	addi	a4,a2,-2
   13efc:	00258413          	addi	s0,a1,2
   13f00:	01659123          	sh	s6,2(a1)
   13f04:	976e                	c.add	a4,s11
   13f06:	08e46563          	bltu	s0,a4,13f90 <__gettextparse+0x270>
   13f0a:	41b404b3          	sub	s1,s0,s11
   13f0e:	6689                	c.lui	a3,0x2
   13f10:	8485                	c.srai	s1,0x1
   13f12:	70f68713          	addi	a4,a3,1807 # 270f <catch_hook+0x26b7>
   13f16:	0485                	c.addi	s1,1
   13f18:	1f876263          	bltu	a4,s8,140fc <__gettextparse+0x3dc>
   13f1c:	71068693          	addi	a3,a3,1808
   13f20:	00c00c33          	add	s8,zero,a2
   13f24:	00c6f863          	bgeu	a3,a2,13f34 <__gettextparse+0x214>
   13f28:	00059697          	auipc	a3,0x59
   13f2c:	9f068693          	addi	a3,a3,-1552 # 6c918 <_GLOBAL_OFFSET_TABLE_+0x30>
   13f30:	0006bc03          	ld	s8,0(a3)
   13f34:	4529                	c.li	a0,10
   13f36:	02ac0533          	mul	a0,s8,a0
   13f3a:	051d                	c.addi	a0,7
   13f3c:	0290a0ef          	jal	ra,1e764 <__libc_malloc>
   13f40:	8baa                	c.mv	s7,a0
   13f42:	1a050d63          	beqz	a0,140fc <__gettextparse+0x3dc>
   13f46:	00149413          	slli	s0,s1,0x1
   13f4a:	8622                	c.mv	a2,s0
   13f4c:	01b005b3          	add	a1,zero,s11
   13f50:	5650c0ef          	jal	ra,20cb4 <memcpy>
   13f54:	001c1913          	slli	s2,s8,0x1
   13f58:	00790713          	addi	a4,s2,7
   13f5c:	9b61                	c.andi	a4,-8
   13f5e:	00eb8ab3          	add	s5,s7,a4
   13f62:	048e                	c.slli	s1,0x3
   13f64:	65a2                	c.ldsp	a1,8(sp)
   13f66:	8626                	c.mv	a2,s1
   13f68:	01500533          	add	a0,zero,s5
   13f6c:	5490c0ef          	jal	ra,20cb4 <memcpy>
   13f70:	014d8663          	beq	s11,s4,13f7c <__gettextparse+0x25c>
   13f74:	01b00533          	add	a0,zero,s11
   13f78:	4bd0a0ef          	jal	ra,1ec34 <__free>
   13f7c:	1479                	c.addi	s0,-2
   13f7e:	1979                	c.addi	s2,-2
   13f80:	14e1                	c.addi	s1,-8
   13f82:	945e                	c.add	s0,s7
   13f84:	995e                	c.add	s2,s7
   13f86:	94d6                	c.add	s1,s5
   13f88:	31247a63          	bgeu	s0,s2,1429c <__gettextparse+0x57c>
   13f8c:	8dde                	c.mv	s11,s7
   13f8e:	e456                	c.sdsp	s5,8(sp)
   13f90:	9e9b6e5b          	bnec	s6,9,13d8c <__gettextparse+0x6c>
   13f94:	846e                	c.mv	s0,s11
   13f96:	4481                	c.li	s1,0
   13f98:	ebdff06f          	j	13e54 <__gettextparse+0x134>
   13f9c:	66e2                	c.ldsp	a3,24(sp)
   13f9e:	628c                	c.ld	a1,0(a3)
   13fa0:	0005c603          	lbu	a2,0(a1)
   13fa4:	00060a63          	beqz	a2,13fb8 <__gettextparse+0x298>
   13fa8:	000654db          	beqc	a2,32,13fb0 <__gettextparse+0x290>
